

Microchip MPLAB XC8 Assembler V2.46 build 20240104201356 
                                                                                               Sun Dec 29 19:04:00 2024

Microchip MPLAB XC8 C Compiler v2.46 (Free license) build 20240104201356 Og1 
     1                           	processor	18F4620
     2                           	fnconf	rparam,??,?,0
     3                           	pagewidth 120
     4                           	opt	flic
     5                           	psect	idataCOMRAM,global,class=CODE,delta=1,noexec
     6                           	psect	idataBANK0,global,class=CODE,delta=1,noexec
     7                           	psect	smallconst,global,reloc=2,class=SMALLCONST,delta=1,noexec
     8                           	psect	cinit,global,reloc=2,class=CODE,delta=1
     9                           	psect	bssCOMRAM,global,class=COMRAM,space=1,delta=1,lowdata,noexec
    10                           	psect	dataCOMRAM,global,class=COMRAM,space=1,delta=1,lowdata,noexec
    11                           	psect	bssBANK0,global,class=BANK0,space=1,delta=1,lowdata,noexec
    12                           	psect	dataBANK0,global,class=BANK0,space=1,delta=1,lowdata,noexec
    13                           	psect	cstackBANK0,global,class=BANK0,space=1,delta=1,lowdata,noexec
    14                           	psect	cstackCOMRAM,global,class=COMRAM,space=1,delta=1,lowdata,noexec
    15                           	psect	text0,global,reloc=2,class=CODE,delta=1
    16                           	psect	text1,global,reloc=2,class=CODE,delta=1
    17                           	psect	text2,global,reloc=2,class=CODE,delta=1
    18                           	psect	text3,global,reloc=2,class=CODE,delta=1
    19                           	psect	text4,global,reloc=2,class=CODE,delta=1
    20                           	psect	text5,global,reloc=2,class=CODE,delta=1
    21                           	psect	text6,global,reloc=2,class=CODE,delta=1
    22                           	psect	text7,global,reloc=2,class=CODE,delta=1
    23                           	psect	text8,global,reloc=2,class=CODE,delta=1,inline
    24                           	psect	text9,global,reloc=2,class=CODE,delta=1,inline
    25                           	psect	text10,global,reloc=2,class=CODE,delta=1,inline
    26                           	psect	text11,global,reloc=2,class=CODE,delta=1,group=1
    27                           	psect	text12,global,reloc=2,class=CODE,delta=1,group=1
    28                           	psect	text13,global,reloc=2,class=CODE,delta=1,group=1
    29                           	psect	text14,global,reloc=2,class=CODE,delta=1,group=1
    30                           	psect	intcode,global,reloc=2,class=CODE,delta=1
    31                           	psect	intcode_body,global,reloc=2,class=CODE,delta=1
    32                           	psect	text16,global,reloc=2,class=CODE,delta=1
    33                           	psect	text17,global,reloc=2,class=CODE,delta=1
    34                           	psect	text18,global,reloc=2,class=CODE,delta=1
    35                           	psect	text19,global,reloc=2,class=CODE,delta=1
    36                           	psect	text20,global,reloc=2,class=CODE,delta=1
    37                           	psect	text21,global,reloc=2,class=CODE,delta=1
    38                           	psect	text22,global,reloc=2,class=CODE,delta=1
    39                           	psect	text23,global,reloc=2,class=CODE,delta=1
    40                           	psect	text24,global,reloc=2,class=CODE,delta=1
    41                           	psect	text25,global,reloc=2,class=CODE,delta=1
    42                           	psect	text26,global,reloc=2,class=CODE,delta=1
    43                           	psect	text27,global,reloc=2,class=CODE,delta=1
    44                           	psect	text28,global,reloc=2,class=CODE,delta=1
    45                           	psect	text29,global,reloc=2,class=CODE,delta=1
    46                           	psect	text30,global,reloc=2,class=CODE,delta=1
    47                           	psect	text31,global,reloc=2,class=CODE,delta=1
    48                           	psect	text32,global,reloc=2,class=CODE,delta=1
    49                           	psect	text33,global,reloc=2,class=CODE,delta=1
    50                           	psect	intsave_regs,global,class=BIGRAM,space=1,delta=1,noexec
    51                           	psect	rparam,global,class=COMRAM,space=1,delta=1,noexec
    52                           	psect	temp,global,ovrld,common,class=COMRAM,space=1,delta=1,lowdata
    53                           	psect	config,global,abs,ovrld,class=CONFIG,space=4,delta=1,noexec
    54   000000                     
    55                           ; Generated 17/10/2023 GMT
    56                           ; 
    57                           ; Copyright © 2023, Microchip Technology Inc. and its subsidiaries ("Microchip")
    58                           ; All rights reserved.
    59                           ; 
    60                           ; This software is developed by Microchip Technology Inc. and its subsidiaries ("Microch
      +                          ip").
    61                           ; 
    62                           ; Redistribution and use in source and binary forms, with or without modification, are
    63                           ; permitted provided that the following conditions are met:
    64                           ; 
    65                           ;     1. Redistributions of source code must retain the above copyright notice, this lis
      +                          t of
    66                           ;        conditions and the following disclaimer.
    67                           ; 
    68                           ;     2. Redistributions in binary form must reproduce the above copyright notice, this 
      +                          list
    69                           ;        of conditions and the following disclaimer in the documentation and/or other
    70                           ;        materials provided with the distribution. Publication is not required when
    71                           ;        this file is used in an embedded application.
    72                           ; 
    73                           ;     3. Microchip's name may not be used to endorse or promote products derived from th
      +                          is
    74                           ;        software without specific prior written permission.
    75                           ; 
    76                           ; THIS SOFTWARE IS PROVIDED BY MICROCHIP "AS IS" AND ANY EXPRESS OR IMPLIED WARRANTIES,
    77                           ; INCLUDING, BUT NOT LIMITED TO, THE IMPLIED WARRANTIES OF MERCHANTABILITY AND FITNESS F
      +                          OR
    78                           ; PURPOSE ARE DISCLAIMED.  IN NO EVENT SHALL MICROCHIP BE LIABLE FOR ANY DIRECT, INDIREC
      +                          T,
    79                           ; INCIDENTAL, SPECIAL, EXEMPLARY, OR CONSEQUENTIAL DAMAGES (INCLUDING BUT NOT LIMITED TO
    80                           ; PROCUREMENT OF SUBSTITUTE GOODS OR SERVICES; LOSS OF USE, DATA OR PROFITS; OR BUSINESS
    81                           ; INTERRUPTION) HOWSOEVER CAUSED AND ON ANY THEORY OF LIABILITY, WHETHER IN CONTRACT, ST
      +                          RICT
    82                           ; LIABILITY, OR TORT (INCLUDING NEGLIGENCE OR OTHERWISE) ARISING IN ANY WAY OUT OF THE U
      +                          SE OF
    83                           ; THIS SOFTWARE, EVEN IF ADVISED OF THE POSSIBILITY OF SUCH DAMAGE.
    84                           ; 
    85                           ; 
    86                           ; Code-generator required, PIC18F4620 Definitions
    87                           ; 
    88                           ; SFR Addresses
    89   000000                     
    90                           	psect	idataCOMRAM
    91   002408                     __pidataCOMRAM:
    92                           	callstack 0
    93                           
    94                           ;initializer for _RB7_Flag
    95   002408  01                 	db	1
    96                           
    97                           ;initializer for _RB6_Flag
    98   002409  01                 	db	1
    99                           
   100                           ;initializer for _RB5_Flag
   101   00240A  01                 	db	1
   102                           
   103                           ;initializer for _RB4_Flag
   104   00240B  01                 	db	1
   105                           
   106                           	psect	idataBANK0
   107   00232E                     __pidataBANK0:
   108                           	callstack 0
   109                           
   110                           ;initializer for _port_reg
   111   00232E  80                 	db	128
   112   00232F  0F                 	db	15
   113   002330  81                 	db	129
   114   002331  0F                 	db	15
   115   002332  82                 	db	130
   116   002333  0F                 	db	15
   117   002334  83                 	db	131
   118   002335  0F                 	db	15
   119   002336  84                 	db	132
   120   002337  0F                 	db	15
   121                           
   122                           ;initializer for _lat_reg
   123   002338  89                 	db	137
   124   002339  0F                 	db	15
   125   00233A  8A                 	db	138
   126   00233B  0F                 	db	15
   127   00233C  8B                 	db	139
   128   00233D  0F                 	db	15
   129   00233E  8C                 	db	140
   130   00233F  0F                 	db	15
   131   002340  8D                 	db	141
   132   002341  0F                 	db	15
   133                           
   134                           ;initializer for _tris_reg
   135   002342  92                 	db	146
   136   002343  0F                 	db	15
   137   002344  93                 	db	147
   138   002345  0F                 	db	15
   139   002346  94                 	db	148
   140   002347  0F                 	db	15
   141   002348  95                 	db	149
   142   002349  0F                 	db	15
   143   00234A  96                 	db	150
   144   00234B  0F                 	db	15
   145                           
   146                           ;initializer for _i2c_obj
   147   00234C  08                 	db	8
   148   00234D  00                 	db	0
   149   00234E  03                 	db	3
   150   00234F  86A0               	dw	34464
   151                           
   152                           	psect	smallconst
   153   001000                     __psmallconst:
   154                           	callstack 0
   155   001000  00                 	db	0
   156   001001                     _btn_values:
   157                           	callstack 0
   158   001001  37                 	db	55
   159   001002  38                 	db	56
   160   001003  39                 	db	57
   161   001004  2F                 	db	47
   162   001005  34                 	db	52
   163   001006  35                 	db	53
   164   001007  36                 	db	54
   165   001008  2A                 	db	42
   166   001009  31                 	db	49
   167   00100A  32                 	db	50
   168   00100B  33                 	db	51
   169   00100C  2D                 	db	45
   170   00100D  23                 	db	35
   171   00100E  30                 	db	48
   172   00100F  3D                 	db	61
   173   001010  2B                 	db	43
   174   001011                     __end_of_btn_values:
   175                           	callstack 0
   176   000000                     _T1CONbits	set	4045
   177   000000                     _TMR1L	set	4046
   178   000000                     _TMR1H	set	4047
   179   000000                     _SPBRGH	set	4016
   180   000000                     _SPBRG	set	4015
   181   000000                     _TXREG	set	4013
   182   000000                     _TXSTAbits	set	4012
   183   000000                     _RCREG	set	4014
   184   000000                     _RCSTAbits	set	4011
   185   000000                     _TMR3L	set	4018
   186   000000                     _TMR3H	set	4019
   187   000000                     _T2CONbits	set	4042
   188   000000                     _TMR2	set	4044
   189   000000                     _T0CONbits	set	4053
   190   000000                     _TMR0L	set	4054
   191   000000                     _TMR0H	set	4055
   192   000000                     _INTCON2bits	set	4081
   193   000000                     _INTCON3bits	set	4080
   194   000000                     _SSPBUF	set	4041
   195   000000                     _SSPSTATbits	set	4039
   196   000000                     _SSPADD	set	4040
   197   000000                     _SSPCON2bits	set	4037
   198   000000                     _SSPCON1bits	set	4038
   199   000000                     _EEDATA	set	4008
   200   000000                     _EECON2	set	4007
   201   000000                     _CCPR2H	set	4028
   202   000000                     _CCPR2L	set	4027
   203   000000                     _CCPR1H	set	4031
   204   000000                     _CCPR1L	set	4030
   205   000000                     _ADCON1bits	set	4033
   206   000000                     _ADRESL	set	4035
   207   000000                     _ADRESH	set	4036
   208   000000                     _INTCONbits	set	4082
   209   000000                     _PR2	set	4043
   210   000000                     _PORTBbits	set	3969
   211   000000                     _TRISCbits	set	3988
   212   000000                     _PORTE	set	3972
   213   000000                     _PORTD	set	3971
   214   000000                     _PORTC	set	3970
   215   000000                     _PORTB	set	3969
   216   000000                     _PORTA	set	3968
   217   000000                     _LATA	set	3977
   218   000000                     _TRISA	set	3986
   219   000000                     _PIE1bits	set	3997
   220   000000                     _PIR1bits	set	3998
   221   000000                     _TRISE	set	3990
   222   000000                     _TRISD	set	3989
   223   000000                     _TRISC	set	3988
   224   000000                     _TRISB	set	3987
   225   000000                     _LATE	set	3981
   226   000000                     _LATD	set	3980
   227   000000                     _LATC	set	3979
   228   000000                     _LATB	set	3978
   229   000000                     _PIE2bits	set	4000
   230   000000                     _CCP2CONbits	set	4026
   231   000000                     _CCP1CONbits	set	4029
   232   000000                     _ADCON2bits	set	4032
   233   000000                     _ADCON0bits	set	4034
   234   000000                     _EECON1bits	set	4006
   235   000000                     _EEADR	set	4009
   236   000000                     _EEADRH	set	4010
   237   000000                     _T3CONbits	set	4017
   238   000000                     _PIR2bits	set	4001
   239   000000                     _BAUDCONbits	set	4024
   240   001011                     STR_5:
   241   001011  4E                 	db	78	;'N'
   242   001012  55                 	db	85	;'U'
   243   001013  4C                 	db	76	;'L'
   244   001014  4C                 	db	76	;'L'
   245   001015  20                 	db	32
   246   001016  49                 	db	73	;'I'
   247   001017  4E                 	db	78	;'N'
   248   001018  50                 	db	80	;'P'
   249   001019  55                 	db	85	;'U'
   250   00101A  54                 	db	84	;'T'
   251   00101B  00                 	db	0
   252   00101C                     STR_1:
   253   00101C  45                 	db	69	;'E'
   254   00101D  52                 	db	82	;'R'
   255   00101E  52                 	db	82	;'R'
   256   00101F  4F                 	db	79	;'O'
   257   001020  52                 	db	82	;'R'
   258   001021  00                 	db	0
   259   001022  00                 	db	0	; dummy byte at the end
   260   000000                     
   261                           ; #config settings
   262                           
   263                           	psect	cinit
   264   0021AC                     __pcinit:
   265                           	callstack 0
   266   0021AC                     start_initialization:
   267                           	callstack 0
   268   0021AC                     __initialization:
   269                           	callstack 0
   270                           
   271                           ; Initialize objects allocated to BANK0 (35 bytes)
   272                           ; load TBLPTR registers with __pidataBANK0
   273   0021AC  0E2E               	movlw	low __pidataBANK0
   274   0021AE  6EF6               	movwf	tblptrl,c
   275   0021B0  0E23               	movlw	high __pidataBANK0
   276   0021B2  6EF7               	movwf	tblptrh,c
   277   0021B4  0E00               	movlw	low (__pidataBANK0 shr (0+16))
   278   0021B6  6EF8               	movwf	tblptru,c
   279   0021B8  EE00  F080         	lfsr	0,__pdataBANK0
   280   0021BC  EE10 F023          	lfsr	1,35
   281   0021C0                     copy_data0:
   282   0021C0  0009               	tblrd		*+
   283   0021C2  CFF5 FFEE          	movff	tablat,postinc0
   284   0021C6  50E5               	movf	postdec1,w,c
   285   0021C8  50E1               	movf	fsr1l,w,c
   286   0021CA  E1FA               	bnz	copy_data0
   287                           
   288                           ; Initialize objects allocated to COMRAM (4 bytes)
   289                           ; load TBLPTR registers with __pidataCOMRAM
   290   0021CC  0E08               	movlw	low __pidataCOMRAM
   291   0021CE  6EF6               	movwf	tblptrl,c
   292   0021D0  0E24               	movlw	high __pidataCOMRAM
   293   0021D2  6EF7               	movwf	tblptrh,c
   294   0021D4  0E00               	movlw	low (__pidataCOMRAM shr (0+16))
   295   0021D6  6EF8               	movwf	tblptru,c
   296   0021D8  EE00  F079         	lfsr	0,__pdataCOMRAM
   297   0021DC  EE10 F004          	lfsr	1,4
   298   0021E0                     copy_data1:
   299   0021E0  0009               	tblrd		*+
   300   0021E2  CFF5 FFEE          	movff	tablat,postinc0
   301   0021E6  50E5               	movf	postdec1,w,c
   302   0021E8  50E1               	movf	fsr1l,w,c
   303   0021EA  E1FA               	bnz	copy_data1
   304                           
   305                           ; Clear objects allocated to BANK0 (12 bytes)
   306   0021EC  EE00  F0A3         	lfsr	0,__pbssBANK0
   307   0021F0  0E0C               	movlw	12
   308   0021F2                     clear_0:
   309   0021F2  6AEE               	clrf	postinc0,c
   310   0021F4  06E8               	decf	wreg,f,c
   311   0021F6  E1FD               	bnz	clear_0
   312                           
   313                           ; Clear objects allocated to COMRAM (49 bytes)
   314   0021F8  EE00  F048         	lfsr	0,__pbssCOMRAM
   315   0021FC  0E31               	movlw	49
   316   0021FE                     clear_1:
   317   0021FE  6AEE               	clrf	postinc0,c
   318   002200  06E8               	decf	wreg,f,c
   319   002202  E1FD               	bnz	clear_1
   320   002204                     end_of_initialization:
   321                           	callstack 0
   322   002204                     __end_of__initialization:
   323                           	callstack 0
   324   002204  907D               	bcf	int$flags,0,c	;clear compiler interrupt flag (level 1)
   325   002206  927D               	bcf	int$flags,1,c	;clear compiler interrupt flag (level 2)
   326   002208  0100               	movlb	0
   327   00220A  EF23  F010         	goto	_main	;jump to C main() function
   328                           
   329                           	psect	bssCOMRAM
   330   000048                     __pbssCOMRAM:
   331                           	callstack 0
   332   000048                     _Timer3_Preload_Value:
   333                           	callstack 0
   334   000048                     	ds	2
   335   00004A                     _TMR2_InterruptHandler:
   336                           	callstack 0
   337   00004A                     	ds	2
   338   00004C                     _Preload_Value:
   339                           	callstack 0
   340   00004C                     	ds	2
   341   00004E                     _TMR0_InterruptHandler:
   342                           	callstack 0
   343   00004E                     	ds	2
   344   000050                     _RB7_InterruptHandler_LOW:
   345                           	callstack 0
   346   000050                     	ds	2
   347   000052                     _RB7_InterruptHandler_HIGH:
   348                           	callstack 0
   349   000052                     	ds	2
   350   000054                     _RB6_InterruptHandler_LOW:
   351                           	callstack 0
   352   000054                     	ds	2
   353   000056                     _RB6_InterruptHandler_HIGH:
   354                           	callstack 0
   355   000056                     	ds	2
   356   000058                     _RB5_InterruptHandler_LOW:
   357                           	callstack 0
   358   000058                     	ds	2
   359   00005A                     _RB5_InterruptHandler_HIGH:
   360                           	callstack 0
   361   00005A                     	ds	2
   362   00005C                     _RB4_InterruptHandler_LOW:
   363                           	callstack 0
   364   00005C                     	ds	2
   365   00005E                     _RB4_InterruptHandler_HIGH:
   366                           	callstack 0
   367   00005E                     	ds	2
   368   000060                     _INT2_InterruptHandler:
   369                           	callstack 0
   370   000060                     	ds	2
   371   000062                     _INT1_InterruptHandler:
   372                           	callstack 0
   373   000062                     	ds	2
   374   000064                     _INT0_InterruptHandler:
   375                           	callstack 0
   376   000064                     	ds	2
   377   000066                     CCP_Compare_Mode_Set_Value@F3171:
   378                           	callstack 0
   379   000066                     	ds	2
   380   000068                     CCP1_Capture_Mode_Read_Value@F3162:
   381                           	callstack 0
   382   000068                     	ds	2
   383   00006A                     _CCP2_InterruptHandler:
   384                           	callstack 0
   385   00006A                     	ds	2
   386   00006C                     _CCP1_InterruptHandler:
   387                           	callstack 0
   388   00006C                     	ds	2
   389   00006E                     _ADC_InterruptHandler:
   390                           	callstack 0
   391   00006E                     	ds	2
   392   000070                     _Timer2_Preload_Value:
   393                           	callstack 0
   394   000070                     	ds	1
   395   000071                     Relay_OFF@F3065:
   396                           	callstack 0
   397   000071                     	ds	1
   398   000072                     Relay_ON@F3060:
   399                           	callstack 0
   400   000072                     	ds	1
   401   000073                     Relay_Init@F3055:
   402                           	callstack 0
   403   000073                     	ds	1
   404   000074                     LED_TURN_TOGGLE@F3076:
   405                           	callstack 0
   406   000074                     	ds	1
   407   000075                     LED_TURN_OFF@F3071:
   408                           	callstack 0
   409   000075                     	ds	1
   410   000076                     LED_TURN_ON@F3066:
   411                           	callstack 0
   412   000076                     	ds	1
   413   000077                     LED_init@F3061:
   414                           	callstack 0
   415   000077                     	ds	1
   416   000078                     _ack:
   417                           	callstack 0
   418   000078                     	ds	1
   419                           
   420                           	psect	dataCOMRAM
   421   000079                     __pdataCOMRAM:
   422                           	callstack 0
   423   000079                     _RB7_Flag:
   424                           	callstack 0
   425   000079                     	ds	1
   426   00007A                     _RB6_Flag:
   427                           	callstack 0
   428   00007A                     	ds	1
   429   00007B                     _RB5_Flag:
   430                           	callstack 0
   431   00007B                     	ds	1
   432   00007C                     _RB4_Flag:
   433                           	callstack 0
   434   00007C                     	ds	1
   435                           
   436                           	psect	bssBANK0
   437   0000A3                     __pbssBANK0:
   438                           	callstack 0
   439   0000A3                     _TMR1_InterruptHandler:
   440                           	callstack 0
   441   0000A3                     	ds	2
   442   0000A5                     _USART_ORROR_InterruptHandler:
   443                           	callstack 0
   444   0000A5                     	ds	2
   445   0000A7                     _USART_FRROR_InterruptHandler:
   446                           	callstack 0
   447   0000A7                     	ds	2
   448   0000A9                     _USART_RX_InterruptHandler:
   449                           	callstack 0
   450   0000A9                     	ds	2
   451   0000AB                     _USART_TX_InterruptHandler:
   452                           	callstack 0
   453   0000AB                     	ds	2
   454   0000AD                     _TMR3_InterruptHandler:
   455                           	callstack 0
   456   0000AD                     	ds	2
   457                           
   458                           	psect	dataBANK0
   459   000080                     __pdataBANK0:
   460                           	callstack 0
   461   000080                     _port_reg:
   462                           	callstack 0
   463   000080                     	ds	10
   464   00008A                     _lat_reg:
   465                           	callstack 0
   466   00008A                     	ds	10
   467   000094                     _tris_reg:
   468                           	callstack 0
   469   000094                     	ds	10
   470   00009E                     _i2c_obj:
   471                           	callstack 0
   472   00009E                     	ds	5
   473                           
   474                           	psect	cstackBANK0
   475   0000AF                     __pcstackBANK0:
   476                           	callstack 0
   477   0000AF                     ??_main:
   478                           
   479                           ; 1 bytes @ 0x0
   480   0000AF                     	ds	2
   481                           
   482                           	psect	cstackCOMRAM
   483   000001                     __pcstackCOMRAM:
   484                           	callstack 0
   485   000001                     RB4_ISR@RB4_SRC:
   486                           	callstack 0
   487   000001                     RB5_ISR@RB5_SRC:
   488                           	callstack 0
   489   000001                     RB6_ISR@RB6_SRC:
   490                           	callstack 0
   491   000001                     RB7_ISR@RB7_SRC:
   492                           	callstack 0
   493                           
   494                           ; 1 bytes @ 0x0
   495   000001                     	ds	1
   496   000002                     ?___xxtofl:
   497                           	callstack 0
   498   000002                     MSSP_I2C_Master_Send_Start@mssp:
   499                           	callstack 0
   500   000002                     MSSP_I2C_Master_Send_Stop@mssp:
   501                           	callstack 0
   502   000002                     MSSP_I2C_Master_Write@mssp:
   503                           	callstack 0
   504   000002                     I2C_Slave_Clock_CFG@mssp:
   505                           	callstack 0
   506   000002                     ___xxtofl@val:
   507                           	callstack 0
   508                           
   509                           ; 4 bytes @ 0x1
   510   000002                     	ds	1
   511   000003                     ??_I2C_Slave_Clock_CFG:
   512   000003                     MSSP_I2C_Master_Write@data_:
   513                           	callstack 0
   514                           
   515                           ; 2 bytes @ 0x2
   516   000003                     	ds	2
   517   000005                     MSSP_I2C_Master_Write@_ack:
   518                           	callstack 0
   519                           
   520                           ; 1 bytes @ 0x4
   521   000005                     	ds	1
   522   000006                     ??___xxtofl:
   523   000006                     mssp_i2c_send_1_byte@slave_add:
   524                           	callstack 0
   525                           
   526                           ; 2 bytes @ 0x5
   527   000006                     	ds	2
   528   000008                     mssp_i2c_send_1_byte@dataa:
   529                           	callstack 0
   530                           
   531                           ; 2 bytes @ 0x7
   532   000008                     	ds	2
   533   00000A                     ___xxtofl@sign:
   534                           	callstack 0
   535                           
   536                           ; 1 bytes @ 0x9
   537   00000A                     	ds	1
   538   00000B                     ___xxtofl@exp:
   539                           	callstack 0
   540                           
   541                           ; 1 bytes @ 0xA
   542   00000B                     	ds	1
   543   00000C                     ___xxtofl@arg:
   544                           	callstack 0
   545                           
   546                           ; 4 bytes @ 0xB
   547   00000C                     	ds	4
   548   000010                     ?___fldiv:
   549                           	callstack 0
   550   000010                     ___fldiv@b:
   551                           	callstack 0
   552                           
   553                           ; 4 bytes @ 0xF
   554   000010                     	ds	4
   555   000014                     ___fldiv@a:
   556                           	callstack 0
   557                           
   558                           ; 4 bytes @ 0x13
   559   000014                     	ds	4
   560   000018                     ??___fldiv:
   561                           
   562                           ; 1 bytes @ 0x17
   563   000018                     	ds	4
   564   00001C                     ___fldiv@rem:
   565                           	callstack 0
   566                           
   567                           ; 4 bytes @ 0x1B
   568   00001C                     	ds	4
   569   000020                     ___fldiv@sign:
   570                           	callstack 0
   571                           
   572                           ; 1 bytes @ 0x1F
   573   000020                     	ds	1
   574   000021                     ___fldiv@new_exp:
   575                           	callstack 0
   576                           
   577                           ; 2 bytes @ 0x20
   578   000021                     	ds	2
   579   000023                     ___fldiv@grs:
   580                           	callstack 0
   581                           
   582                           ; 4 bytes @ 0x22
   583   000023                     	ds	4
   584   000027                     ___fldiv@bexp:
   585                           	callstack 0
   586                           
   587                           ; 1 bytes @ 0x26
   588   000027                     	ds	1
   589   000028                     ___fldiv@aexp:
   590                           	callstack 0
   591                           
   592                           ; 1 bytes @ 0x27
   593   000028                     	ds	1
   594   000029                     ?___fladd:
   595                           	callstack 0
   596   000029                     ___fladd@b:
   597                           	callstack 0
   598                           
   599                           ; 4 bytes @ 0x28
   600   000029                     	ds	4
   601   00002D                     ___fladd@a:
   602                           	callstack 0
   603                           
   604                           ; 4 bytes @ 0x2C
   605   00002D                     	ds	4
   606   000031                     ??___fladd:
   607                           
   608                           ; 1 bytes @ 0x30
   609   000031                     	ds	4
   610   000035                     ___fladd@signs:
   611                           	callstack 0
   612                           
   613                           ; 1 bytes @ 0x34
   614   000035                     	ds	1
   615   000036                     ___fladd@aexp:
   616                           	callstack 0
   617                           
   618                           ; 1 bytes @ 0x35
   619   000036                     	ds	1
   620   000037                     ___fladd@bexp:
   621                           	callstack 0
   622                           
   623                           ; 1 bytes @ 0x36
   624   000037                     	ds	1
   625   000038                     ___fladd@grs:
   626                           	callstack 0
   627                           
   628                           ; 1 bytes @ 0x37
   629   000038                     	ds	1
   630   000039                     ?___fltol:
   631                           	callstack 0
   632   000039                     ___fltol@f1:
   633                           	callstack 0
   634                           
   635                           ; 4 bytes @ 0x38
   636   000039                     	ds	4
   637   00003D                     ??___fltol:
   638                           
   639                           ; 1 bytes @ 0x3C
   640   00003D                     	ds	4
   641   000041                     ___fltol@sign1:
   642                           	callstack 0
   643                           
   644                           ; 1 bytes @ 0x40
   645   000041                     	ds	1
   646   000042                     ___fltol@exp1:
   647                           	callstack 0
   648                           
   649                           ; 1 bytes @ 0x41
   650   000042                     	ds	1
   651   000043                     I2C_Master_Clock_CFG@mssp:
   652                           	callstack 0
   653                           
   654                           ; 1 bytes @ 0x42
   655   000043                     	ds	1
   656   000044                     ??_I2C_Master_Clock_CFG:
   657                           
   658                           ; 1 bytes @ 0x43
   659   000044                     	ds	2
   660   000046                     MSSP_I2C_Init@mssp:
   661                           	callstack 0
   662                           
   663                           ; 1 bytes @ 0x45
   664   000046                     	ds	1
   665   000047                     MSSP_I2C_Init@ret:
   666                           	callstack 0
   667                           
   668                           ; 1 bytes @ 0x46
   669   000047                     	ds	1
   670                           
   671 ;;
   672 ;;Main: autosize = 0, tempsize = 2, incstack = 0, save=0
   673 ;;
   674 ;; *************** function _main *****************
   675 ;; Defined at:
   676 ;;		line 30 in file "application.c"
   677 ;; Parameters:    Size  Location     Type
   678 ;;		None
   679 ;; Auto vars:     Size  Location     Type
   680 ;;  ret             1    0        unsigned char 
   681 ;; Return value:  Size  Location     Type
   682 ;;                  2  1617[None  ] int 
   683 ;; Registers used:
   684 ;;		wreg, fsr2l, fsr2h, status,2, status,0, cstack
   685 ;; Tracked objects:
   686 ;;		On entry : 0/0
   687 ;;		On exit  : 0/0
   688 ;;		Unchanged: 0/0
   689 ;; Data sizes:     COMRAM   BANK0   BANK1   BANK2   BANK3   BANK4   BANK5   BANK6   BANK7   BANK8   BANK9  BANK10  BANK1
      +1  BANK12  BANK13  BANK14  BANK15
   690 ;;      Params:         0       0       0       0       0       0       0       0       0       0       0       0       
      +0       0       0       0       0
   691 ;;      Locals:         0       0       0       0       0       0       0       0       0       0       0       0       
      +0       0       0       0       0
   692 ;;      Temps:          0       2       0       0       0       0       0       0       0       0       0       0       
      +0       0       0       0       0
   693 ;;      Totals:         0       2       0       0       0       0       0       0       0       0       0       0       
      +0       0       0       0       0
   694 ;;Total ram usage:        2 bytes
   695 ;; Hardware stack levels required when called: 5
   696 ;; This function calls:
   697 ;;		_MSSP_I2C_Init
   698 ;;		_application_init
   699 ;;		_mssp_i2c_send_1_byte
   700 ;; This function is called by:
   701 ;;		Startup code after reset
   702 ;; This function uses a non-reentrant model
   703 ;;
   704                           
   705                           	psect	text0
   706   002046                     __ptext0:
   707                           	callstack 0
   708   002046                     _main:
   709                           	callstack 26
   710   002046                     
   711                           ;application.c: 32:     application_init();
   712   002046  ECFE  F011         	call	_application_init	;wreg free
   713   00204A  0E9E               	movlw	low _i2c_obj
   714   00204C  6E46               	movwf	MSSP_I2C_Init@mssp^0,c
   715   00204E  EC0C  F00F         	call	_MSSP_I2C_Init	;wreg free
   716   002052                     l7139:
   717                           
   718                           ;application.c: 38:     mssp_i2c_send_1_byte(0x60, 'a');
   719   002052  0E00               	movlw	0
   720   002054  6E07               	movwf	(mssp_i2c_send_1_byte@slave_add+1)^0,c
   721   002056  0E60               	movlw	96
   722   002058  6E06               	movwf	mssp_i2c_send_1_byte@slave_add^0,c
   723   00205A  0E00               	movlw	0
   724   00205C  6E09               	movwf	(mssp_i2c_send_1_byte@dataa+1)^0,c
   725   00205E  0E61               	movlw	97
   726   002060  6E08               	movwf	mssp_i2c_send_1_byte@dataa^0,c
   727   002062  EC7A  F011         	call	_mssp_i2c_send_1_byte	;wreg free
   728   002066                     
   729                           ;application.c: 39:     _delay((unsigned long)((1500)*(8000000/4000.0)));
   730   002066  0E10               	movlw	16
   731   002068  0100               	movlb	0	; () banked
   732   00206A  6FB0               	movwf	(??_main+1)& (0+255),b
   733   00206C  0E39               	movlw	57
   734   00206E  6FAF               	movwf	??_main& (0+255),b
   735   002070  0E0D               	movlw	13
   736   002072                     u6877:
   737   002072  2EE8               	decfsz	wreg,f,c
   738   002074  D7FE               	bra	u6877
   739   002076  2FAF               	decfsz	??_main& (0+255),f,b
   740   002078  D7FC               	bra	u6877
   741   00207A  2FB0               	decfsz	(??_main+1)& (0+255),f,b
   742   00207C  D7FA               	bra	u6877
   743   00207E  D000               	nop2	
   744   002080                     
   745                           ;application.c: 40:     mssp_i2c_send_1_byte(0x62, 'b');
   746   002080  0E00               	movlw	0
   747   002082  6E07               	movwf	(mssp_i2c_send_1_byte@slave_add+1)^0,c
   748   002084  0E62               	movlw	98
   749   002086  6E06               	movwf	mssp_i2c_send_1_byte@slave_add^0,c
   750   002088  0E00               	movlw	0
   751   00208A  6E09               	movwf	(mssp_i2c_send_1_byte@dataa+1)^0,c
   752   00208C  0E62               	movlw	98
   753   00208E  6E08               	movwf	mssp_i2c_send_1_byte@dataa^0,c
   754   002090  EC7A  F011         	call	_mssp_i2c_send_1_byte	;wreg free
   755   002094                     
   756                           ;application.c: 41:     _delay((unsigned long)((1500)*(8000000/4000.0)));
   757   002094  0E10               	movlw	16
   758   002096  0100               	movlb	0	; () banked
   759   002098  6FB0               	movwf	(??_main+1)& (0+255),b
   760   00209A  0E39               	movlw	57
   761   00209C  6FAF               	movwf	??_main& (0+255),b
   762   00209E  0E0D               	movlw	13
   763   0020A0                     u6887:
   764   0020A0  2EE8               	decfsz	wreg,f,c
   765   0020A2  D7FE               	bra	u6887
   766   0020A4  2FAF               	decfsz	??_main& (0+255),f,b
   767   0020A6  D7FC               	bra	u6887
   768   0020A8  2FB0               	decfsz	(??_main+1)& (0+255),f,b
   769   0020AA  D7FA               	bra	u6887
   770   0020AC  D000               	nop2	
   771   0020AE                     
   772                           ;application.c: 42:     mssp_i2c_send_1_byte(0x60, 'c');
   773   0020AE  0E00               	movlw	0
   774   0020B0  6E07               	movwf	(mssp_i2c_send_1_byte@slave_add+1)^0,c
   775   0020B2  0E60               	movlw	96
   776   0020B4  6E06               	movwf	mssp_i2c_send_1_byte@slave_add^0,c
   777   0020B6  0E00               	movlw	0
   778   0020B8  6E09               	movwf	(mssp_i2c_send_1_byte@dataa+1)^0,c
   779   0020BA  0E63               	movlw	99
   780   0020BC  6E08               	movwf	mssp_i2c_send_1_byte@dataa^0,c
   781   0020BE  EC7A  F011         	call	_mssp_i2c_send_1_byte	;wreg free
   782   0020C2                     
   783                           ;application.c: 43:     _delay((unsigned long)((1500)*(8000000/4000.0)));
   784   0020C2  0E10               	movlw	16
   785   0020C4  0100               	movlb	0	; () banked
   786   0020C6  6FB0               	movwf	(??_main+1)& (0+255),b
   787   0020C8  0E39               	movlw	57
   788   0020CA  6FAF               	movwf	??_main& (0+255),b
   789   0020CC  0E0D               	movlw	13
   790   0020CE                     u6897:
   791   0020CE  2EE8               	decfsz	wreg,f,c
   792   0020D0  D7FE               	bra	u6897
   793   0020D2  2FAF               	decfsz	??_main& (0+255),f,b
   794   0020D4  D7FC               	bra	u6897
   795   0020D6  2FB0               	decfsz	(??_main+1)& (0+255),f,b
   796   0020D8  D7FA               	bra	u6897
   797   0020DA  D000               	nop2	
   798   0020DC                     
   799                           ;application.c: 44:     mssp_i2c_send_1_byte(0x62, 'd');
   800   0020DC  0E00               	movlw	0
   801   0020DE  6E07               	movwf	(mssp_i2c_send_1_byte@slave_add+1)^0,c
   802   0020E0  0E62               	movlw	98
   803   0020E2  6E06               	movwf	mssp_i2c_send_1_byte@slave_add^0,c
   804   0020E4  0E00               	movlw	0
   805   0020E6  6E09               	movwf	(mssp_i2c_send_1_byte@dataa+1)^0,c
   806   0020E8  0E64               	movlw	100
   807   0020EA  6E08               	movwf	mssp_i2c_send_1_byte@dataa^0,c
   808   0020EC  EC7A  F011         	call	_mssp_i2c_send_1_byte	;wreg free
   809   0020F0                     
   810                           ;application.c: 45:     _delay((unsigned long)((1500)*(8000000/4000.0)));
   811   0020F0  0E10               	movlw	16
   812   0020F2  0100               	movlb	0	; () banked
   813   0020F4  6FB0               	movwf	(??_main+1)& (0+255),b
   814   0020F6  0E39               	movlw	57
   815   0020F8  6FAF               	movwf	??_main& (0+255),b
   816   0020FA  0E0D               	movlw	13
   817   0020FC                     u6907:
   818   0020FC  2EE8               	decfsz	wreg,f,c
   819   0020FE  D7FE               	bra	u6907
   820   002100  2FAF               	decfsz	??_main& (0+255),f,b
   821   002102  D7FC               	bra	u6907
   822   002104  2FB0               	decfsz	(??_main+1)& (0+255),f,b
   823   002106  D7FA               	bra	u6907
   824   002108  D000               	nop2	
   825   00210A  EF29  F010         	goto	l7139
   826   00210E  EF07  F000         	goto	start
   827   002112                     __end_of_main:
   828                           	callstack 0
   829                           
   830 ;; *************** function _mssp_i2c_send_1_byte *****************
   831 ;; Defined at:
   832 ;;		line 23 in file "application.c"
   833 ;; Parameters:    Size  Location     Type
   834 ;;  slave_add       2    5[COMRAM] unsigned int 
   835 ;;  dataa           2    7[COMRAM] unsigned int 
   836 ;; Auto vars:     Size  Location     Type
   837 ;;		None
   838 ;; Return value:  Size  Location     Type
   839 ;;                  1    wreg      void 
   840 ;; Registers used:
   841 ;;		wreg, fsr2l, fsr2h, status,2, status,0, cstack
   842 ;; Tracked objects:
   843 ;;		On entry : 0/0
   844 ;;		On exit  : 0/0
   845 ;;		Unchanged: 0/0
   846 ;; Data sizes:     COMRAM   BANK0   BANK1   BANK2   BANK3   BANK4   BANK5   BANK6   BANK7   BANK8   BANK9  BANK10  BANK1
      +1  BANK12  BANK13  BANK14  BANK15
   847 ;;      Params:         4       0       0       0       0       0       0       0       0       0       0       0       
      +0       0       0       0       0
   848 ;;      Locals:         0       0       0       0       0       0       0       0       0       0       0       0       
      +0       0       0       0       0
   849 ;;      Temps:          0       0       0       0       0       0       0       0       0       0       0       0       
      +0       0       0       0       0
   850 ;;      Totals:         4       0       0       0       0       0       0       0       0       0       0       0       
      +0       0       0       0       0
   851 ;;Total ram usage:        4 bytes
   852 ;; Hardware stack levels used: 1
   853 ;; Hardware stack levels required when called: 3
   854 ;; This function calls:
   855 ;;		_MSSP_I2C_Master_Send_Start
   856 ;;		_MSSP_I2C_Master_Send_Stop
   857 ;;		_MSSP_I2C_Master_Write
   858 ;; This function is called by:
   859 ;;		_main
   860 ;; This function uses a non-reentrant model
   861 ;;
   862                           
   863                           	psect	text1
   864   0022F4                     __ptext1:
   865                           	callstack 0
   866   0022F4                     _mssp_i2c_send_1_byte:
   867                           	callstack 27
   868   0022F4                     
   869                           ;application.c: 24:     MSSP_I2C_Master_Send_Start(&i2c_obj);
   870   0022F4  0E9E               	movlw	low _i2c_obj
   871   0022F6  6E02               	movwf	MSSP_I2C_Master_Send_Start@mssp^0,c
   872   0022F8  EC54  F011         	call	_MSSP_I2C_Master_Send_Start	;wreg free
   873   0022FC                     
   874                           ;application.c: 25:     MSSP_I2C_Master_Write(&i2c_obj, slave_add, &ack);
   875   0022FC  0E9E               	movlw	low _i2c_obj
   876   0022FE  6E02               	movwf	MSSP_I2C_Master_Write@mssp^0,c
   877   002300  C006  F003         	movff	mssp_i2c_send_1_byte@slave_add,MSSP_I2C_Master_Write@data_
   878   002304  C007  F004         	movff	mssp_i2c_send_1_byte@slave_add+1,MSSP_I2C_Master_Write@data_+1
   879   002308  0E78               	movlw	low _ack
   880   00230A  6E05               	movwf	MSSP_I2C_Master_Write@_ack^0,c
   881   00230C  EC07  F011         	call	_MSSP_I2C_Master_Write	;wreg free
   882   002310                     
   883                           ;application.c: 26:     MSSP_I2C_Master_Write(&i2c_obj, dataa, &ack);
   884   002310  0E9E               	movlw	low _i2c_obj
   885   002312  6E02               	movwf	MSSP_I2C_Master_Write@mssp^0,c
   886   002314  C008  F003         	movff	mssp_i2c_send_1_byte@dataa,MSSP_I2C_Master_Write@data_
   887   002318  C009  F004         	movff	mssp_i2c_send_1_byte@dataa+1,MSSP_I2C_Master_Write@data_+1
   888   00231C  0E78               	movlw	low _ack
   889   00231E  6E05               	movwf	MSSP_I2C_Master_Write@_ack^0,c
   890   002320  EC07  F011         	call	_MSSP_I2C_Master_Write	;wreg free
   891                           
   892                           ;application.c: 27:     MSSP_I2C_Master_Send_Stop(&i2c_obj);
   893   002324  0E9E               	movlw	low _i2c_obj
   894   002326  6E02               	movwf	MSSP_I2C_Master_Send_Stop@mssp^0,c
   895   002328  EC2E  F011         	call	_MSSP_I2C_Master_Send_Stop	;wreg free
   896   00232C  0012               	return		;funcret
   897   00232E                     __end_of_mssp_i2c_send_1_byte:
   898                           	callstack 0
   899                           
   900 ;; *************** function _MSSP_I2C_Master_Write *****************
   901 ;; Defined at:
   902 ;;		line 175 in file "MCAL_Layer/MCAL_I2C/MCAL_I2C.c"
   903 ;; Parameters:    Size  Location     Type
   904 ;;  mssp            1    1[COMRAM] PTR const struct .
   905 ;;		 -> i2c_obj(5), 
   906 ;;  data_           2    2[COMRAM] unsigned int 
   907 ;;  _ack            1    4[COMRAM] PTR unsigned char 
   908 ;;		 -> ack(1), 
   909 ;; Auto vars:     Size  Location     Type
   910 ;;  ret             1    0        unsigned char 
   911 ;; Return value:  Size  Location     Type
   912 ;;                  1    wreg      unsigned char 
   913 ;; Registers used:
   914 ;;		wreg, fsr2l, fsr2h, status,2
   915 ;; Tracked objects:
   916 ;;		On entry : 0/0
   917 ;;		On exit  : 0/0
   918 ;;		Unchanged: 0/0
   919 ;; Data sizes:     COMRAM   BANK0   BANK1   BANK2   BANK3   BANK4   BANK5   BANK6   BANK7   BANK8   BANK9  BANK10  BANK1
      +1  BANK12  BANK13  BANK14  BANK15
   920 ;;      Params:         4       0       0       0       0       0       0       0       0       0       0       0       
      +0       0       0       0       0
   921 ;;      Locals:         0       0       0       0       0       0       0       0       0       0       0       0       
      +0       0       0       0       0
   922 ;;      Temps:          0       0       0       0       0       0       0       0       0       0       0       0       
      +0       0       0       0       0
   923 ;;      Totals:         4       0       0       0       0       0       0       0       0       0       0       0       
      +0       0       0       0       0
   924 ;;Total ram usage:        4 bytes
   925 ;; Hardware stack levels used: 1
   926 ;; Hardware stack levels required when called: 2
   927 ;; This function calls:
   928 ;;		Nothing
   929 ;; This function is called by:
   930 ;;		_mssp_i2c_send_1_byte
   931 ;; This function uses a non-reentrant model
   932 ;;
   933                           
   934                           	psect	text2
   935   00220E                     __ptext2:
   936                           	callstack 0
   937   00220E                     _MSSP_I2C_Master_Write:
   938                           	callstack 27
   939   00220E                     
   940                           ;MCAL_Layer/MCAL_I2C/MCAL_I2C.c: 177:     if(((void*)0) == mssp){
   941   00220E  5002               	movf	MSSP_I2C_Master_Write@mssp^0,w,c
   942   002210  A4D8               	btfss	status,2,c
   943   002212  EF0D  F011         	goto	u5041
   944   002216  EF0F  F011         	goto	u5040
   945   00221A                     u5041:
   946   00221A  EF11  F011         	goto	l869
   947   00221E                     u5040:
   948   00221E                     
   949                           ;MCAL_Layer/MCAL_I2C/MCAL_I2C.c: 179:     }
   950   00221E  EF2D  F011         	goto	l876
   951   002222                     l869:
   952                           
   953                           ;MCAL_Layer/MCAL_I2C/MCAL_I2C.c: 181:         SSPBUF = data_;
   954   002222  C003  FFC9         	movff	MSSP_I2C_Master_Write@data_,4041	;volatile
   955   002226                     l871:
   956   002226  A69E               	btfss	158,3,c	;volatile
   957   002228  EF18  F011         	goto	u5051
   958   00222C  EF1A  F011         	goto	u5050
   959   002230                     u5051:
   960   002230  EF13  F011         	goto	l871
   961   002234                     u5050:
   962   002234                     
   963                           ;MCAL_Layer/MCAL_I2C/MCAL_I2C.c: 183:         PIR1bits.SSPIF = 0;
   964   002234  969E               	bcf	158,3,c	;volatile
   965                           
   966                           ;MCAL_Layer/MCAL_I2C/MCAL_I2C.c: 184:         if(0 == SSPCON2bits.ACKSTAT){
   967   002236  BCC5               	btfsc	197,6,c	;volatile
   968   002238  EF20  F011         	goto	u5061
   969   00223C  EF22  F011         	goto	u5060
   970   002240                     u5061:
   971   002240  EF28  F011         	goto	l5827
   972   002244                     u5060:
   973   002244                     
   974                           ;MCAL_Layer/MCAL_I2C/MCAL_I2C.c: 185:             *_ack = 0;
   975   002244  5005               	movf	MSSP_I2C_Master_Write@_ack^0,w,c
   976   002246  6ED9               	movwf	fsr2l,c
   977   002248  6ADA               	clrf	fsr2h,c
   978   00224A  6ADF               	clrf	indf2,c
   979                           
   980                           ;MCAL_Layer/MCAL_I2C/MCAL_I2C.c: 186:         }
   981   00224C  EF2D  F011         	goto	l876
   982   002250                     l5827:
   983                           
   984                           ;MCAL_Layer/MCAL_I2C/MCAL_I2C.c: 188:             *_ack = 1;
   985   002250  5005               	movf	MSSP_I2C_Master_Write@_ack^0,w,c
   986   002252  6ED9               	movwf	fsr2l,c
   987   002254  6ADA               	clrf	fsr2h,c
   988   002256  0E01               	movlw	1
   989   002258  6EDF               	movwf	indf2,c
   990   00225A                     l876:
   991   00225A  0012               	return		;funcret
   992   00225C                     __end_of_MSSP_I2C_Master_Write:
   993                           	callstack 0
   994                           
   995 ;; *************** function _MSSP_I2C_Master_Send_Stop *****************
   996 ;; Defined at:
   997 ;;		line 156 in file "MCAL_Layer/MCAL_I2C/MCAL_I2C.c"
   998 ;; Parameters:    Size  Location     Type
   999 ;;  mssp            1    1[COMRAM] PTR const struct .
  1000 ;;		 -> i2c_obj(5), 
  1001 ;; Auto vars:     Size  Location     Type
  1002 ;;  ret             1    0        unsigned char 
  1003 ;; Return value:  Size  Location     Type
  1004 ;;                  1    wreg      unsigned char 
  1005 ;; Registers used:
  1006 ;;		wreg, status,2
  1007 ;; Tracked objects:
  1008 ;;		On entry : 0/0
  1009 ;;		On exit  : 0/0
  1010 ;;		Unchanged: 0/0
  1011 ;; Data sizes:     COMRAM   BANK0   BANK1   BANK2   BANK3   BANK4   BANK5   BANK6   BANK7   BANK8   BANK9  BANK10  BANK1
      +1  BANK12  BANK13  BANK14  BANK15
  1012 ;;      Params:         1       0       0       0       0       0       0       0       0       0       0       0       
      +0       0       0       0       0
  1013 ;;      Locals:         0       0       0       0       0       0       0       0       0       0       0       0       
      +0       0       0       0       0
  1014 ;;      Temps:          0       0       0       0       0       0       0       0       0       0       0       0       
      +0       0       0       0       0
  1015 ;;      Totals:         1       0       0       0       0       0       0       0       0       0       0       0       
      +0       0       0       0       0
  1016 ;;Total ram usage:        1 bytes
  1017 ;; Hardware stack levels used: 1
  1018 ;; Hardware stack levels required when called: 2
  1019 ;; This function calls:
  1020 ;;		Nothing
  1021 ;; This function is called by:
  1022 ;;		_mssp_i2c_send_1_byte
  1023 ;; This function uses a non-reentrant model
  1024 ;;
  1025                           
  1026                           	psect	text3
  1027   00225C                     __ptext3:
  1028                           	callstack 0
  1029   00225C                     _MSSP_I2C_Master_Send_Stop:
  1030                           	callstack 27
  1031   00225C                     
  1032                           ;MCAL_Layer/MCAL_I2C/MCAL_I2C.c: 158:     if(((void*)0) == mssp){
  1033   00225C  5002               	movf	MSSP_I2C_Master_Send_Stop@mssp^0,w,c
  1034   00225E  A4D8               	btfss	status,2,c
  1035   002260  EF34  F011         	goto	u5001
  1036   002264  EF36  F011         	goto	u5000
  1037   002268                     u5001:
  1038   002268  EF38  F011         	goto	l857
  1039   00226C                     u5000:
  1040   00226C                     l5815:
  1041                           
  1042                           ;MCAL_Layer/MCAL_I2C/MCAL_I2C.c: 160:     }
  1043   00226C  EF53  F011         	goto	l866
  1044   002270                     l857:
  1045                           
  1046                           ;MCAL_Layer/MCAL_I2C/MCAL_I2C.c: 162:         SSPCON2bits.PEN = 1;
  1047   002270  84C5               	bsf	197,2,c	;volatile
  1048   002272                     l859:
  1049   002272  B4C5               	btfsc	197,2,c	;volatile
  1050   002274  EF3E  F011         	goto	u5011
  1051   002278  EF40  F011         	goto	u5010
  1052   00227C                     u5011:
  1053   00227C  EF39  F011         	goto	l859
  1054   002280                     u5010:
  1055   002280                     
  1056                           ;MCAL_Layer/MCAL_I2C/MCAL_I2C.c: 164:        PIR1bits.SSPIF = 0;
  1057   002280  969E               	bcf	158,3,c	;volatile
  1058                           
  1059                           ;MCAL_Layer/MCAL_I2C/MCAL_I2C.c: 165:        if(1 == SSPSTATbits.P){
  1060   002282  A8C7               	btfss	199,4,c	;volatile
  1061   002284  EF46  F011         	goto	u5021
  1062   002288  EF48  F011         	goto	u5020
  1063   00228C                     u5021:
  1064   00228C  EF4A  F011         	goto	l862
  1065   002290                     u5020:
  1066   002290                     
  1067                           ;MCAL_Layer/MCAL_I2C/MCAL_I2C.c: 167:         }
  1068   002290  EF53  F011         	goto	l866
  1069   002294                     l862:
  1070   002294  B8C7               	btfsc	199,4,c	;volatile
  1071   002296  EF4F  F011         	goto	u5031
  1072   00229A  EF51  F011         	goto	u5030
  1073   00229E                     u5031:
  1074   00229E  EF53  F011         	goto	l863
  1075   0022A2                     u5030:
  1076   0022A2  EF36  F011         	goto	l5815
  1077   0022A6                     l863:
  1078   0022A6                     l866:
  1079   0022A6  0012               	return		;funcret
  1080   0022A8                     __end_of_MSSP_I2C_Master_Send_Stop:
  1081                           	callstack 0
  1082                           
  1083 ;; *************** function _MSSP_I2C_Master_Send_Start *****************
  1084 ;; Defined at:
  1085 ;;		line 125 in file "MCAL_Layer/MCAL_I2C/MCAL_I2C.c"
  1086 ;; Parameters:    Size  Location     Type
  1087 ;;  mssp            1    1[COMRAM] PTR const struct .
  1088 ;;		 -> i2c_obj(5), 
  1089 ;; Auto vars:     Size  Location     Type
  1090 ;;  ret             1    0        unsigned char 
  1091 ;; Return value:  Size  Location     Type
  1092 ;;                  1    wreg      unsigned char 
  1093 ;; Registers used:
  1094 ;;		wreg, status,2
  1095 ;; Tracked objects:
  1096 ;;		On entry : 0/0
  1097 ;;		On exit  : 0/0
  1098 ;;		Unchanged: 0/0
  1099 ;; Data sizes:     COMRAM   BANK0   BANK1   BANK2   BANK3   BANK4   BANK5   BANK6   BANK7   BANK8   BANK9  BANK10  BANK1
      +1  BANK12  BANK13  BANK14  BANK15
  1100 ;;      Params:         1       0       0       0       0       0       0       0       0       0       0       0       
      +0       0       0       0       0
  1101 ;;      Locals:         0       0       0       0       0       0       0       0       0       0       0       0       
      +0       0       0       0       0
  1102 ;;      Temps:          0       0       0       0       0       0       0       0       0       0       0       0       
      +0       0       0       0       0
  1103 ;;      Totals:         1       0       0       0       0       0       0       0       0       0       0       0       
      +0       0       0       0       0
  1104 ;;Total ram usage:        1 bytes
  1105 ;; Hardware stack levels used: 1
  1106 ;; Hardware stack levels required when called: 2
  1107 ;; This function calls:
  1108 ;;		Nothing
  1109 ;; This function is called by:
  1110 ;;		_mssp_i2c_send_1_byte
  1111 ;; This function uses a non-reentrant model
  1112 ;;
  1113                           
  1114                           	psect	text4
  1115   0022A8                     __ptext4:
  1116                           	callstack 0
  1117   0022A8                     _MSSP_I2C_Master_Send_Start:
  1118                           	callstack 27
  1119   0022A8                     
  1120                           ;MCAL_Layer/MCAL_I2C/MCAL_I2C.c: 127:     if(((void*)0) == mssp){
  1121   0022A8  5002               	movf	MSSP_I2C_Master_Send_Start@mssp^0,w,c
  1122   0022AA  A4D8               	btfss	status,2,c
  1123   0022AC  EF5A  F011         	goto	u4961
  1124   0022B0  EF5C  F011         	goto	u4960
  1125   0022B4                     u4961:
  1126   0022B4  EF5E  F011         	goto	l837
  1127   0022B8                     u4960:
  1128   0022B8                     l5807:
  1129                           
  1130                           ;MCAL_Layer/MCAL_I2C/MCAL_I2C.c: 129:     }
  1131   0022B8  EF79  F011         	goto	l846
  1132   0022BC                     l837:
  1133                           
  1134                           ;MCAL_Layer/MCAL_I2C/MCAL_I2C.c: 131:         SSPCON2bits.SEN = 1;
  1135   0022BC  80C5               	bsf	197,0,c	;volatile
  1136   0022BE                     l839:
  1137   0022BE  B0C5               	btfsc	197,0,c	;volatile
  1138   0022C0  EF64  F011         	goto	u4971
  1139   0022C4  EF66  F011         	goto	u4970
  1140   0022C8                     u4971:
  1141   0022C8  EF5F  F011         	goto	l839
  1142   0022CC                     u4970:
  1143   0022CC                     
  1144                           ;MCAL_Layer/MCAL_I2C/MCAL_I2C.c: 133:         PIR1bits.SSPIF = 0;
  1145   0022CC  969E               	bcf	158,3,c	;volatile
  1146                           
  1147                           ;MCAL_Layer/MCAL_I2C/MCAL_I2C.c: 134:         if(1 == SSPSTATbits.S){
  1148   0022CE  A6C7               	btfss	199,3,c	;volatile
  1149   0022D0  EF6C  F011         	goto	u4981
  1150   0022D4  EF6E  F011         	goto	u4980
  1151   0022D8                     u4981:
  1152   0022D8  EF70  F011         	goto	l842
  1153   0022DC                     u4980:
  1154   0022DC                     
  1155                           ;MCAL_Layer/MCAL_I2C/MCAL_I2C.c: 136:         }
  1156   0022DC  EF79  F011         	goto	l846
  1157   0022E0                     l842:
  1158   0022E0  B6C7               	btfsc	199,3,c	;volatile
  1159   0022E2  EF75  F011         	goto	u4991
  1160   0022E6  EF77  F011         	goto	u4990
  1161   0022EA                     u4991:
  1162   0022EA  EF79  F011         	goto	l843
  1163   0022EE                     u4990:
  1164   0022EE  EF5C  F011         	goto	l5807
  1165   0022F2                     l843:
  1166   0022F2                     l846:
  1167   0022F2  0012               	return		;funcret
  1168   0022F4                     __end_of_MSSP_I2C_Master_Send_Start:
  1169                           	callstack 0
  1170                           
  1171 ;; *************** function _application_init *****************
  1172 ;; Defined at:
  1173 ;;		line 50 in file "application.c"
  1174 ;; Parameters:    Size  Location     Type
  1175 ;;		None
  1176 ;; Auto vars:     Size  Location     Type
  1177 ;;  ret             1    0        unsigned char 
  1178 ;; Return value:  Size  Location     Type
  1179 ;;                  1    wreg      void 
  1180 ;; Registers used:
  1181 ;;		wreg, status,2, cstack
  1182 ;; Tracked objects:
  1183 ;;		On entry : 0/0
  1184 ;;		On exit  : 0/0
  1185 ;;		Unchanged: 0/0
  1186 ;; Data sizes:     COMRAM   BANK0   BANK1   BANK2   BANK3   BANK4   BANK5   BANK6   BANK7   BANK8   BANK9  BANK10  BANK1
      +1  BANK12  BANK13  BANK14  BANK15
  1187 ;;      Params:         0       0       0       0       0       0       0       0       0       0       0       0       
      +0       0       0       0       0
  1188 ;;      Locals:         0       0       0       0       0       0       0       0       0       0       0       0       
      +0       0       0       0       0
  1189 ;;      Temps:          0       0       0       0       0       0       0       0       0       0       0       0       
      +0       0       0       0       0
  1190 ;;      Totals:         0       0       0       0       0       0       0       0       0       0       0       0       
      +0       0       0       0       0
  1191 ;;Total ram usage:        0 bytes
  1192 ;; Hardware stack levels used: 1
  1193 ;; Hardware stack levels required when called: 3
  1194 ;; This function calls:
  1195 ;;		_ECU_Layer_Init
  1196 ;; This function is called by:
  1197 ;;		_main
  1198 ;; This function uses a non-reentrant model
  1199 ;;
  1200                           
  1201                           	psect	text5
  1202   0023FC                     __ptext5:
  1203                           	callstack 0
  1204   0023FC                     _application_init:
  1205                           	callstack 27
  1206   0023FC                     
  1207                           ;application.c: 52:     ECU_Layer_Init();
  1208   0023FC  EC14  F012         	call	_ECU_Layer_Init	;wreg free
  1209   002400  0012               	return		;funcret
  1210   002402                     __end_of_application_init:
  1211                           	callstack 0
  1212                           
  1213 ;; *************** function _ECU_Layer_Init *****************
  1214 ;; Defined at:
  1215 ;;		line 72 in file "ECU_Layer/ECU_LAYER_INIT/ECU_LAYER_INIT.c"
  1216 ;; Parameters:    Size  Location     Type
  1217 ;;		None
  1218 ;; Auto vars:     Size  Location     Type
  1219 ;;  ret             1    0        unsigned char 
  1220 ;; Return value:  Size  Location     Type
  1221 ;;                  1    wreg      void 
  1222 ;; Registers used:
  1223 ;;		wreg, status,2
  1224 ;; Tracked objects:
  1225 ;;		On entry : 0/0
  1226 ;;		On exit  : 0/0
  1227 ;;		Unchanged: 0/0
  1228 ;; Data sizes:     COMRAM   BANK0   BANK1   BANK2   BANK3   BANK4   BANK5   BANK6   BANK7   BANK8   BANK9  BANK10  BANK1
      +1  BANK12  BANK13  BANK14  BANK15
  1229 ;;      Params:         0       0       0       0       0       0       0       0       0       0       0       0       
      +0       0       0       0       0
  1230 ;;      Locals:         0       0       0       0       0       0       0       0       0       0       0       0       
      +0       0       0       0       0
  1231 ;;      Temps:          0       0       0       0       0       0       0       0       0       0       0       0       
      +0       0       0       0       0
  1232 ;;      Totals:         0       0       0       0       0       0       0       0       0       0       0       0       
      +0       0       0       0       0
  1233 ;;Total ram usage:        0 bytes
  1234 ;; Hardware stack levels used: 1
  1235 ;; Hardware stack levels required when called: 2
  1236 ;; This function calls:
  1237 ;;		Nothing
  1238 ;; This function is called by:
  1239 ;;		_application_init
  1240 ;; This function uses a non-reentrant model
  1241 ;;
  1242                           
  1243                           	psect	text6
  1244   002428                     __ptext6:
  1245                           	callstack 0
  1246   002428                     _ECU_Layer_Init:
  1247                           	callstack 27
  1248   002428  0012               	return		;funcret
  1249   00242A                     __end_of_ECU_Layer_Init:
  1250                           	callstack 0
  1251                           
  1252 ;; *************** function _MSSP_I2C_Init *****************
  1253 ;; Defined at:
  1254 ;;		line 30 in file "MCAL_Layer/MCAL_I2C/MCAL_I2C.c"
  1255 ;; Parameters:    Size  Location     Type
  1256 ;;  mssp            1   69[COMRAM] PTR const struct .
  1257 ;;		 -> i2c_obj(5), 
  1258 ;; Auto vars:     Size  Location     Type
  1259 ;;  ret             1   70[COMRAM] unsigned char 
  1260 ;; Return value:  Size  Location     Type
  1261 ;;                  1    wreg      unsigned char 
  1262 ;; Registers used:
  1263 ;;		wreg, fsr2l, fsr2h, status,2, status,0, cstack
  1264 ;; Tracked objects:
  1265 ;;		On entry : 0/0
  1266 ;;		On exit  : 0/0
  1267 ;;		Unchanged: 0/0
  1268 ;; Data sizes:     COMRAM   BANK0   BANK1   BANK2   BANK3   BANK4   BANK5   BANK6   BANK7   BANK8   BANK9  BANK10  BANK1
      +1  BANK12  BANK13  BANK14  BANK15
  1269 ;;      Params:         1       0       0       0       0       0       0       0       0       0       0       0       
      +0       0       0       0       0
  1270 ;;      Locals:         1       0       0       0       0       0       0       0       0       0       0       0       
      +0       0       0       0       0
  1271 ;;      Temps:          0       0       0       0       0       0       0       0       0       0       0       0       
      +0       0       0       0       0
  1272 ;;      Totals:         2       0       0       0       0       0       0       0       0       0       0       0       
      +0       0       0       0       0
  1273 ;;Total ram usage:        2 bytes
  1274 ;; Hardware stack levels used: 1
  1275 ;; Hardware stack levels required when called: 4
  1276 ;; This function calls:
  1277 ;;		_I2C_Master_Clock_CFG
  1278 ;;		_I2C_Slave_Clock_CFG
  1279 ;;		_MSSP_I2C_MODE_GPIO_CFG
  1280 ;; This function is called by:
  1281 ;;		_main
  1282 ;; This function uses a non-reentrant model
  1283 ;;
  1284                           
  1285                           	psect	text7
  1286   001E18                     __ptext7:
  1287                           	callstack 0
  1288   001E18                     _MSSP_I2C_Init:
  1289                           	callstack 26
  1290   001E18                     
  1291                           ;MCAL_Layer/MCAL_I2C/MCAL_I2C.c: 31:      STD_ReturnType ret = (STD_ReturnType)0x01;
  1292   001E18  0E01               	movlw	1
  1293   001E1A  6E47               	movwf	MSSP_I2C_Init@ret^0,c
  1294                           
  1295                           ;MCAL_Layer/MCAL_I2C/MCAL_I2C.c: 32:     if(((void*)0) == mssp){
  1296   001E1C  5046               	movf	MSSP_I2C_Init@mssp^0,w,c
  1297   001E1E  A4D8               	btfss	status,2,c
  1298   001E20  EF14  F00F         	goto	u5201
  1299   001E24  EF16  F00F         	goto	u5200
  1300   001E28                     u5201:
  1301   001E28  EF1A  F00F         	goto	l811
  1302   001E2C                     u5200:
  1303   001E2C                     
  1304                           ;MCAL_Layer/MCAL_I2C/MCAL_I2C.c: 33:         ret = (STD_ReturnType)0x00;
  1305   001E2C  0E00               	movlw	0
  1306   001E2E  6E47               	movwf	MSSP_I2C_Init@ret^0,c
  1307                           
  1308                           ;MCAL_Layer/MCAL_I2C/MCAL_I2C.c: 34:     }
  1309   001E30  EF9E  F00F         	goto	l5981
  1310   001E34                     l811:
  1311                           
  1312                           ;MCAL_Layer/MCAL_I2C/MCAL_I2C.c: 36:        (SSPCON1bits.SSPEN = 0);
  1313   001E34  9AC6               	bcf	198,5,c	;volatile
  1314   001E36                     
  1315                           ;MCAL_Layer/MCAL_I2C/MCAL_I2C.c: 37:        if(1 == mssp->i2c_cfg.i2c_mode){
  1316   001E36  5046               	movf	MSSP_I2C_Init@mssp^0,w,c
  1317   001E38  6ED9               	movwf	fsr2l,c
  1318   001E3A  6ADA               	clrf	fsr2h,c
  1319   001E3C  0E02               	movlw	2
  1320   001E3E  26D9               	addwf	fsr2l,f,c
  1321   001E40  A0DF               	btfss	indf2,0,c
  1322   001E42  EF25  F00F         	goto	u5211
  1323   001E46  EF27  F00F         	goto	u5210
  1324   001E4A                     u5211:
  1325   001E4A  EF2D  F00F         	goto	l5949
  1326   001E4E                     u5210:
  1327   001E4E                     
  1328                           ;MCAL_Layer/MCAL_I2C/MCAL_I2C.c: 38:            I2C_Master_Clock_CFG(mssp);
  1329   001E4E  C046  F043         	movff	MSSP_I2C_Init@mssp,I2C_Master_Clock_CFG@mssp
  1330   001E52  EC89  F010         	call	_I2C_Master_Clock_CFG	;wreg free
  1331                           
  1332                           ;MCAL_Layer/MCAL_I2C/MCAL_I2C.c: 39:        }
  1333   001E56  EF63  F00F         	goto	l5963
  1334   001E5A                     l5949:
  1335   001E5A  5046               	movf	MSSP_I2C_Init@mssp^0,w,c
  1336   001E5C  6ED9               	movwf	fsr2l,c
  1337   001E5E  6ADA               	clrf	fsr2h,c
  1338   001E60  0E02               	movlw	2
  1339   001E62  26D9               	addwf	fsr2l,f,c
  1340   001E64  B0DF               	btfsc	indf2,0,c
  1341   001E66  EF37  F00F         	goto	u5221
  1342   001E6A  EF39  F00F         	goto	u5220
  1343   001E6E                     u5221:
  1344   001E6E  EF63  F00F         	goto	l5963
  1345   001E72                     u5220:
  1346   001E72                     
  1347                           ;MCAL_Layer/MCAL_I2C/MCAL_I2C.c: 41:            if(1 == mssp->i2c_cfg.i2c_gen_call){
  1348   001E72  5046               	movf	MSSP_I2C_Init@mssp^0,w,c
  1349   001E74  6ED9               	movwf	fsr2l,c
  1350   001E76  6ADA               	clrf	fsr2h,c
  1351   001E78  0E02               	movlw	2
  1352   001E7A  26D9               	addwf	fsr2l,f,c
  1353   001E7C  A6DF               	btfss	indf2,3,c
  1354   001E7E  EF43  F00F         	goto	u5231
  1355   001E82  EF45  F00F         	goto	u5230
  1356   001E86                     u5231:
  1357   001E86  EF48  F00F         	goto	l5955
  1358   001E8A                     u5230:
  1359   001E8A                     
  1360                           ;MCAL_Layer/MCAL_I2C/MCAL_I2C.c: 42:                (SSPCON2bits.GCEN = 1);
  1361   001E8A  8EC5               	bsf	197,7,c	;volatile
  1362                           
  1363                           ;MCAL_Layer/MCAL_I2C/MCAL_I2C.c: 43:            }
  1364   001E8C  EF55  F00F         	goto	l817
  1365   001E90                     l5955:
  1366   001E90  5046               	movf	MSSP_I2C_Init@mssp^0,w,c
  1367   001E92  6ED9               	movwf	fsr2l,c
  1368   001E94  6ADA               	clrf	fsr2h,c
  1369   001E96  0E02               	movlw	2
  1370   001E98  26D9               	addwf	fsr2l,f,c
  1371   001E9A  B6DF               	btfsc	indf2,3,c
  1372   001E9C  EF52  F00F         	goto	u5241
  1373   001EA0  EF54  F00F         	goto	u5240
  1374   001EA4                     u5241:
  1375   001EA4  EF55  F00F         	goto	l817
  1376   001EA8                     u5240:
  1377   001EA8                     
  1378                           ;MCAL_Layer/MCAL_I2C/MCAL_I2C.c: 45:                (SSPCON2bits.GCEN = 0);
  1379   001EA8  9EC5               	bcf	197,7,c	;volatile
  1380   001EAA                     l817:
  1381                           
  1382                           ;MCAL_Layer/MCAL_I2C/MCAL_I2C.c: 48:            SSPCON1bits.WCOL = 0;
  1383   001EAA  9EC6               	bcf	198,7,c	;volatile
  1384                           
  1385                           ;MCAL_Layer/MCAL_I2C/MCAL_I2C.c: 49:            SSPCON1bits.SSPOV = 0;
  1386   001EAC  9CC6               	bcf	198,6,c	;volatile
  1387                           
  1388                           ;MCAL_Layer/MCAL_I2C/MCAL_I2C.c: 50:            SSPCON1bits.CKP = 1;
  1389   001EAE  88C6               	bsf	198,4,c	;volatile
  1390   001EB0                     
  1391                           ;MCAL_Layer/MCAL_I2C/MCAL_I2C.c: 51:            SSPADD = mssp->i2c_cfg.i2c_slave_address
      +                          ;
  1392   001EB0  5046               	movf	MSSP_I2C_Init@mssp^0,w,c
  1393   001EB2  6ED9               	movwf	fsr2l,c
  1394   001EB4  6ADA               	clrf	fsr2h,c
  1395   001EB6  0E01               	movlw	1
  1396   001EB8  26D9               	addwf	fsr2l,f,c
  1397   001EBA  50DF               	movf	indf2,w,c
  1398   001EBC  6EC8               	movwf	200,c	;volatile
  1399   001EBE                     
  1400                           ;MCAL_Layer/MCAL_I2C/MCAL_I2C.c: 52:            I2C_Slave_Clock_CFG(mssp);
  1401   001EBE  C046  F002         	movff	MSSP_I2C_Init@mssp,I2C_Slave_Clock_CFG@mssp
  1402   001EC2  ECDD  F011         	call	_I2C_Slave_Clock_CFG	;wreg free
  1403   001EC6                     l5963:
  1404                           
  1405                           ;MCAL_Layer/MCAL_I2C/MCAL_I2C.c: 55:        MSSP_I2C_MODE_GPIO_CFG();
  1406   001EC6  EC01  F012         	call	_MSSP_I2C_MODE_GPIO_CFG	;wreg free
  1407   001ECA                     
  1408                           ;MCAL_Layer/MCAL_I2C/MCAL_I2C.c: 56:        if(0 == mssp->i2c_cfg.i2c_slew_rate){
  1409   001ECA  5046               	movf	MSSP_I2C_Init@mssp^0,w,c
  1410   001ECC  6ED9               	movwf	fsr2l,c
  1411   001ECE  6ADA               	clrf	fsr2h,c
  1412   001ED0  0E02               	movlw	2
  1413   001ED2  26D9               	addwf	fsr2l,f,c
  1414   001ED4  B2DF               	btfsc	indf2,1,c
  1415   001ED6  EF6F  F00F         	goto	u5251
  1416   001EDA  EF71  F00F         	goto	u5250
  1417   001EDE                     u5251:
  1418   001EDE  EF74  F00F         	goto	l5969
  1419   001EE2                     u5250:
  1420   001EE2                     
  1421                           ;MCAL_Layer/MCAL_I2C/MCAL_I2C.c: 57:            (SSPSTATbits.SMP = 0);
  1422   001EE2  9EC7               	bcf	199,7,c	;volatile
  1423                           
  1424                           ;MCAL_Layer/MCAL_I2C/MCAL_I2C.c: 58:        }
  1425   001EE4  EF81  F00F         	goto	l5973
  1426   001EE8                     l5969:
  1427   001EE8  5046               	movf	MSSP_I2C_Init@mssp^0,w,c
  1428   001EEA  6ED9               	movwf	fsr2l,c
  1429   001EEC  6ADA               	clrf	fsr2h,c
  1430   001EEE  0E02               	movlw	2
  1431   001EF0  26D9               	addwf	fsr2l,f,c
  1432   001EF2  A2DF               	btfss	indf2,1,c
  1433   001EF4  EF7E  F00F         	goto	u5261
  1434   001EF8  EF80  F00F         	goto	u5260
  1435   001EFC                     u5261:
  1436   001EFC  EF81  F00F         	goto	l5973
  1437   001F00                     u5260:
  1438   001F00                     
  1439                           ;MCAL_Layer/MCAL_I2C/MCAL_I2C.c: 60:            (SSPSTATbits.SMP = 1);
  1440   001F00  8EC7               	bsf	199,7,c	;volatile
  1441   001F02                     l5973:
  1442                           
  1443                           ;MCAL_Layer/MCAL_I2C/MCAL_I2C.c: 64:        if(1 == mssp->i2c_cfg.i2c_SMBus_ctrl){
  1444   001F02  5046               	movf	MSSP_I2C_Init@mssp^0,w,c
  1445   001F04  6ED9               	movwf	fsr2l,c
  1446   001F06  6ADA               	clrf	fsr2h,c
  1447   001F08  0E02               	movlw	2
  1448   001F0A  26D9               	addwf	fsr2l,f,c
  1449   001F0C  A4DF               	btfss	indf2,2,c
  1450   001F0E  EF8B  F00F         	goto	u5271
  1451   001F12  EF8D  F00F         	goto	u5270
  1452   001F16                     u5271:
  1453   001F16  EF90  F00F         	goto	l5977
  1454   001F1A                     u5270:
  1455   001F1A                     
  1456                           ;MCAL_Layer/MCAL_I2C/MCAL_I2C.c: 65:            (SSPSTATbits.CKE = 1);
  1457   001F1A  8CC7               	bsf	199,6,c	;volatile
  1458                           
  1459                           ;MCAL_Layer/MCAL_I2C/MCAL_I2C.c: 66:        }
  1460   001F1C  EF9D  F00F         	goto	l826
  1461   001F20                     l5977:
  1462   001F20  5046               	movf	MSSP_I2C_Init@mssp^0,w,c
  1463   001F22  6ED9               	movwf	fsr2l,c
  1464   001F24  6ADA               	clrf	fsr2h,c
  1465   001F26  0E02               	movlw	2
  1466   001F28  26D9               	addwf	fsr2l,f,c
  1467   001F2A  B4DF               	btfsc	indf2,2,c
  1468   001F2C  EF9A  F00F         	goto	u5281
  1469   001F30  EF9C  F00F         	goto	u5280
  1470   001F34                     u5281:
  1471   001F34  EF9D  F00F         	goto	l826
  1472   001F38                     u5280:
  1473   001F38                     
  1474                           ;MCAL_Layer/MCAL_I2C/MCAL_I2C.c: 68:            (SSPSTATbits.CKE = 0);
  1475   001F38  9CC7               	bcf	199,6,c	;volatile
  1476   001F3A                     l826:
  1477                           
  1478                           ;MCAL_Layer/MCAL_I2C/MCAL_I2C.c: 107:        (SSPCON1bits.SSPEN = 1);
  1479   001F3A  8AC6               	bsf	198,5,c	;volatile
  1480   001F3C                     l5981:
  1481                           
  1482                           ;MCAL_Layer/MCAL_I2C/MCAL_I2C.c: 109:     return ret;
  1483   001F3C  5047               	movf	MSSP_I2C_Init@ret^0,w,c
  1484   001F3E  0012               	return		;funcret
  1485   001F40                     __end_of_MSSP_I2C_Init:
  1486                           	callstack 0
  1487                           
  1488 ;; *************** function _MSSP_I2C_MODE_GPIO_CFG *****************
  1489 ;; Defined at:
  1490 ;;		line 215 in file "MCAL_Layer/MCAL_I2C/MCAL_I2C.c"
  1491 ;; Parameters:    Size  Location     Type
  1492 ;;		None
  1493 ;; Auto vars:     Size  Location     Type
  1494 ;;		None
  1495 ;; Return value:  Size  Location     Type
  1496 ;;                  1    wreg      void 
  1497 ;; Registers used:
  1498 ;;		None
  1499 ;; Tracked objects:
  1500 ;;		On entry : 0/0
  1501 ;;		On exit  : 0/0
  1502 ;;		Unchanged: 0/0
  1503 ;; Data sizes:     COMRAM   BANK0   BANK1   BANK2   BANK3   BANK4   BANK5   BANK6   BANK7   BANK8   BANK9  BANK10  BANK1
      +1  BANK12  BANK13  BANK14  BANK15
  1504 ;;      Params:         0       0       0       0       0       0       0       0       0       0       0       0       
      +0       0       0       0       0
  1505 ;;      Locals:         0       0       0       0       0       0       0       0       0       0       0       0       
      +0       0       0       0       0
  1506 ;;      Temps:          0       0       0       0       0       0       0       0       0       0       0       0       
      +0       0       0       0       0
  1507 ;;      Totals:         0       0       0       0       0       0       0       0       0       0       0       0       
      +0       0       0       0       0
  1508 ;;Total ram usage:        0 bytes
  1509 ;; Hardware stack levels used: 1
  1510 ;; Hardware stack levels required when called: 2
  1511 ;; This function calls:
  1512 ;;		Nothing
  1513 ;; This function is called by:
  1514 ;;		_MSSP_I2C_Init
  1515 ;; This function uses a non-reentrant model
  1516 ;;
  1517                           
  1518                           	psect	text8
  1519   002402                     __ptext8:
  1520                           	callstack 0
  1521   002402                     _MSSP_I2C_MODE_GPIO_CFG:
  1522                           	callstack 27
  1523   002402                     
  1524                           ;MCAL_Layer/MCAL_I2C/MCAL_I2C.c: 216:     TRISCbits.TRISC3 = 1;
  1525   002402  8694               	bsf	148,3,c	;volatile
  1526                           
  1527                           ;MCAL_Layer/MCAL_I2C/MCAL_I2C.c: 217:     TRISCbits.TRISC4 = 1;
  1528   002404  8894               	bsf	148,4,c	;volatile
  1529   002406  0012               	return		;funcret
  1530   002408                     __end_of_MSSP_I2C_MODE_GPIO_CFG:
  1531                           	callstack 0
  1532                           
  1533 ;; *************** function _I2C_Slave_Clock_CFG *****************
  1534 ;; Defined at:
  1535 ;;		line 224 in file "MCAL_Layer/MCAL_I2C/MCAL_I2C.c"
  1536 ;; Parameters:    Size  Location     Type
  1537 ;;  mssp            1    1[COMRAM] PTR const struct .
  1538 ;;		 -> i2c_obj(5), 
  1539 ;; Auto vars:     Size  Location     Type
  1540 ;;		None
  1541 ;; Return value:  Size  Location     Type
  1542 ;;                  1    wreg      void 
  1543 ;; Registers used:
  1544 ;;		wreg, fsr2l, fsr2h, status,2, status,0
  1545 ;; Tracked objects:
  1546 ;;		On entry : 0/0
  1547 ;;		On exit  : 0/0
  1548 ;;		Unchanged: 0/0
  1549 ;; Data sizes:     COMRAM   BANK0   BANK1   BANK2   BANK3   BANK4   BANK5   BANK6   BANK7   BANK8   BANK9  BANK10  BANK1
      +1  BANK12  BANK13  BANK14  BANK15
  1550 ;;      Params:         1       0       0       0       0       0       0       0       0       0       0       0       
      +0       0       0       0       0
  1551 ;;      Locals:         0       0       0       0       0       0       0       0       0       0       0       0       
      +0       0       0       0       0
  1552 ;;      Temps:          1       0       0       0       0       0       0       0       0       0       0       0       
      +0       0       0       0       0
  1553 ;;      Totals:         2       0       0       0       0       0       0       0       0       0       0       0       
      +0       0       0       0       0
  1554 ;;Total ram usage:        2 bytes
  1555 ;; Hardware stack levels used: 1
  1556 ;; Hardware stack levels required when called: 2
  1557 ;; This function calls:
  1558 ;;		Nothing
  1559 ;; This function is called by:
  1560 ;;		_MSSP_I2C_Init
  1561 ;; This function uses a non-reentrant model
  1562 ;;
  1563                           
  1564                           	psect	text9
  1565   0023BA                     __ptext9:
  1566                           	callstack 0
  1567   0023BA                     _I2C_Slave_Clock_CFG:
  1568                           	callstack 27
  1569   0023BA                     
  1570                           ;MCAL_Layer/MCAL_I2C/MCAL_I2C.c: 225:     SSPCON1bits.SSPM = mssp->i2c_cfg.i2c_cfg_mode;
  1571   0023BA  5002               	movf	I2C_Slave_Clock_CFG@mssp^0,w,c
  1572   0023BC  6ED9               	movwf	fsr2l,c
  1573   0023BE  6ADA               	clrf	fsr2h,c
  1574   0023C0  50DF               	movf	indf2,w,c
  1575   0023C2  6E03               	movwf	??_I2C_Slave_Clock_CFG^0,c
  1576   0023C4  50C6               	movf	198,w,c	;volatile
  1577   0023C6  1803               	xorwf	??_I2C_Slave_Clock_CFG^0,w,c
  1578   0023C8  0BF0               	andlw	-16
  1579   0023CA  1803               	xorwf	??_I2C_Slave_Clock_CFG^0,w,c
  1580   0023CC  6EC6               	movwf	198,c	;volatile
  1581   0023CE  0012               	return		;funcret
  1582   0023D0                     __end_of_I2C_Slave_Clock_CFG:
  1583                           	callstack 0
  1584                           
  1585 ;; *************** function _I2C_Master_Clock_CFG *****************
  1586 ;; Defined at:
  1587 ;;		line 220 in file "MCAL_Layer/MCAL_I2C/MCAL_I2C.c"
  1588 ;; Parameters:    Size  Location     Type
  1589 ;;  mssp            1   66[COMRAM] PTR const struct .
  1590 ;;		 -> i2c_obj(5), 
  1591 ;; Auto vars:     Size  Location     Type
  1592 ;;		None
  1593 ;; Return value:  Size  Location     Type
  1594 ;;                  1    wreg      void 
  1595 ;; Registers used:
  1596 ;;		wreg, fsr2l, fsr2h, status,2, status,0, cstack
  1597 ;; Tracked objects:
  1598 ;;		On entry : 0/0
  1599 ;;		On exit  : 0/0
  1600 ;;		Unchanged: 0/0
  1601 ;; Data sizes:     COMRAM   BANK0   BANK1   BANK2   BANK3   BANK4   BANK5   BANK6   BANK7   BANK8   BANK9  BANK10  BANK1
      +1  BANK12  BANK13  BANK14  BANK15
  1602 ;;      Params:         1       0       0       0       0       0       0       0       0       0       0       0       
      +0       0       0       0       0
  1603 ;;      Locals:         0       0       0       0       0       0       0       0       0       0       0       0       
      +0       0       0       0       0
  1604 ;;      Temps:          2       0       0       0       0       0       0       0       0       0       0       0       
      +0       0       0       0       0
  1605 ;;      Totals:         3       0       0       0       0       0       0       0       0       0       0       0       
      +0       0       0       0       0
  1606 ;;Total ram usage:        3 bytes
  1607 ;; Hardware stack levels used: 1
  1608 ;; Hardware stack levels required when called: 3
  1609 ;; This function calls:
  1610 ;;		___fladd
  1611 ;;		___fldiv
  1612 ;;		___fltol
  1613 ;;		___xxtofl
  1614 ;; This function is called by:
  1615 ;;		_MSSP_I2C_Init
  1616 ;; This function uses a non-reentrant model
  1617 ;;
  1618                           
  1619                           	psect	text10
  1620   002112                     __ptext10:
  1621                           	callstack 0
  1622   002112                     _I2C_Master_Clock_CFG:
  1623                           	callstack 26
  1624   002112                     
  1625                           ;MCAL_Layer/MCAL_I2C/MCAL_I2C.c: 221:     SSPCON1bits.SSPM = mssp->i2c_cfg.i2c_cfg_mode;
  1626   002112  5043               	movf	I2C_Master_Clock_CFG@mssp^0,w,c
  1627   002114  6ED9               	movwf	fsr2l,c
  1628   002116  6ADA               	clrf	fsr2h,c
  1629   002118  50DF               	movf	indf2,w,c
  1630   00211A  6E44               	movwf	??_I2C_Master_Clock_CFG^0,c
  1631   00211C  50C6               	movf	198,w,c	;volatile
  1632   00211E  1844               	xorwf	??_I2C_Master_Clock_CFG^0,w,c
  1633   002120  0BF0               	andlw	-16
  1634   002122  1844               	xorwf	??_I2C_Master_Clock_CFG^0,w,c
  1635   002124  6EC6               	movwf	198,c	;volatile
  1636   002126                     
  1637                           ;MCAL_Layer/MCAL_I2C/MCAL_I2C.c: 222:     SSPADD = (uint8)(((8000000 / 4.0)/mssp->i2c_cl
      +                          ock) - 1);
  1638   002126  0E00               	movlw	0
  1639   002128  6E2D               	movwf	___fladd@a^0,c
  1640   00212A  0E00               	movlw	0
  1641   00212C  6E2E               	movwf	(___fladd@a+1)^0,c
  1642   00212E  0E80               	movlw	128
  1643   002130  6E2F               	movwf	(___fladd@a+2)^0,c
  1644   002132  0EBF               	movlw	191
  1645   002134  6E30               	movwf	(___fladd@a+3)^0,c
  1646   002136  5043               	movf	I2C_Master_Clock_CFG@mssp^0,w,c
  1647   002138  6ED9               	movwf	fsr2l,c
  1648   00213A  6ADA               	clrf	fsr2h,c
  1649   00213C  0E03               	movlw	3
  1650   00213E  26D9               	addwf	fsr2l,f,c
  1651   002140  CFDE F044          	movff	postinc2,??_I2C_Master_Clock_CFG
  1652   002144  CFDD F045          	movff	postdec2,??_I2C_Master_Clock_CFG+1
  1653   002148  C044  F002         	movff	??_I2C_Master_Clock_CFG,___xxtofl@val
  1654   00214C  C045  F003         	movff	??_I2C_Master_Clock_CFG+1,___xxtofl@val+1
  1655   002150  6A04               	clrf	(___xxtofl@val+2)^0,c
  1656   002152  6A05               	clrf	(___xxtofl@val+3)^0,c
  1657   002154  0E00               	movlw	0
  1658   002156  EC32  F00E         	call	___xxtofl
  1659   00215A  C002  F014         	movff	?___xxtofl,___fldiv@a
  1660   00215E  C003  F015         	movff	?___xxtofl+1,___fldiv@a+1
  1661   002162  C004  F016         	movff	?___xxtofl+2,___fldiv@a+2
  1662   002166  C005  F017         	movff	?___xxtofl+3,___fldiv@a+3
  1663   00216A  0E00               	movlw	0
  1664   00216C  6E10               	movwf	___fldiv@b^0,c
  1665   00216E  0E24               	movlw	36
  1666   002170  6E11               	movwf	(___fldiv@b+1)^0,c
  1667   002172  0EF4               	movlw	244
  1668   002174  6E12               	movwf	(___fldiv@b+2)^0,c
  1669   002176  0E49               	movlw	73
  1670   002178  6E13               	movwf	(___fldiv@b+3)^0,c
  1671   00217A  EC65  F00C         	call	___fldiv	;wreg free
  1672   00217E  C010  F029         	movff	?___fldiv,___fladd@b
  1673   002182  C011  F02A         	movff	?___fldiv+1,___fladd@b+1
  1674   002186  C012  F02B         	movff	?___fldiv+2,___fladd@b+2
  1675   00218A  C013  F02C         	movff	?___fldiv+3,___fladd@b+3
  1676   00218E  EC12  F008         	call	___fladd	;wreg free
  1677   002192  C029  F039         	movff	?___fladd,___fltol@f1
  1678   002196  C02A  F03A         	movff	?___fladd+1,___fltol@f1+1
  1679   00219A  C02B  F03B         	movff	?___fladd+2,___fltol@f1+2
  1680   00219E  C02C  F03C         	movff	?___fladd+3,___fltol@f1+3
  1681   0021A2  ECA0  F00F         	call	___fltol	;wreg free
  1682   0021A6  5039               	movf	?___fltol^0,w,c
  1683   0021A8  6EC8               	movwf	200,c	;volatile
  1684   0021AA  0012               	return		;funcret
  1685   0021AC                     __end_of_I2C_Master_Clock_CFG:
  1686                           	callstack 0
  1687                           
  1688 ;; *************** function ___xxtofl *****************
  1689 ;; Defined at:
  1690 ;;		line 10 in file "D:\XC8\pic\sources\c99\common\xxtofl.c"
  1691 ;; Parameters:    Size  Location     Type
  1692 ;;  sign            1    wreg     unsigned char 
  1693 ;;  val             4    1[COMRAM] long 
  1694 ;; Auto vars:     Size  Location     Type
  1695 ;;  sign            1    9[COMRAM] unsigned char 
  1696 ;;  arg             4   11[COMRAM] unsigned long 
  1697 ;;  exp             1   10[COMRAM] unsigned char 
  1698 ;; Return value:  Size  Location     Type
  1699 ;;                  4    1[COMRAM] unsigned char 
  1700 ;; Registers used:
  1701 ;;		wreg, status,2, status,0
  1702 ;; Tracked objects:
  1703 ;;		On entry : 0/0
  1704 ;;		On exit  : 0/0
  1705 ;;		Unchanged: 0/0
  1706 ;; Data sizes:     COMRAM   BANK0   BANK1   BANK2   BANK3   BANK4   BANK5   BANK6   BANK7   BANK8   BANK9  BANK10  BANK1
      +1  BANK12  BANK13  BANK14  BANK15
  1707 ;;      Params:         4       0       0       0       0       0       0       0       0       0       0       0       
      +0       0       0       0       0
  1708 ;;      Locals:         6       0       0       0       0       0       0       0       0       0       0       0       
      +0       0       0       0       0
  1709 ;;      Temps:          4       0       0       0       0       0       0       0       0       0       0       0       
      +0       0       0       0       0
  1710 ;;      Totals:        14       0       0       0       0       0       0       0       0       0       0       0       
      +0       0       0       0       0
  1711 ;;Total ram usage:       14 bytes
  1712 ;; Hardware stack levels used: 1
  1713 ;; Hardware stack levels required when called: 2
  1714 ;; This function calls:
  1715 ;;		Nothing
  1716 ;; This function is called by:
  1717 ;;		_I2C_Master_Clock_CFG
  1718 ;;		_CCP_PWM_Set_Duty
  1719 ;;		_USART_Baud_Rate_Calculation
  1720 ;; This function uses a non-reentrant model
  1721 ;;
  1722                           
  1723                           	psect	text11
  1724   001C64                     __ptext11:
  1725                           	callstack 0
  1726   001C64                     ___xxtofl:
  1727                           	callstack 26
  1728                           
  1729                           ;incstack = 0
  1730                           ;___xxtofl@sign stored from wreg
  1731   001C64  6E0A               	movwf	___xxtofl@sign^0,c
  1732   001C66  500A               	movf	___xxtofl@sign^0,w,c
  1733   001C68  B4D8               	btfsc	status,2,c
  1734   001C6A  EF39  F00E         	goto	u4731
  1735   001C6E  EF3B  F00E         	goto	u4730
  1736   001C72                     u4731:
  1737   001C72  EF5D  F00E         	goto	l2282
  1738   001C76                     u4730:
  1739   001C76  BE05               	btfsc	(___xxtofl@val+3)^0,7,c
  1740   001C78  EF42  F00E         	goto	u4740
  1741   001C7C  EF40  F00E         	goto	u4741
  1742   001C80                     u4741:
  1743   001C80  EF5D  F00E         	goto	l2282
  1744   001C84                     u4740:
  1745   001C84  C002  F006         	movff	___xxtofl@val,??___xxtofl
  1746   001C88  C003  F007         	movff	___xxtofl@val+1,??___xxtofl+1
  1747   001C8C  C004  F008         	movff	___xxtofl@val+2,??___xxtofl+2
  1748   001C90  C005  F009         	movff	___xxtofl@val+3,??___xxtofl+3
  1749   001C94  1E06               	comf	??___xxtofl^0,f,c
  1750   001C96  1E07               	comf	(??___xxtofl+1)^0,f,c
  1751   001C98  1E08               	comf	(??___xxtofl+2)^0,f,c
  1752   001C9A  1E09               	comf	(??___xxtofl+3)^0,f,c
  1753   001C9C  2A06               	incf	??___xxtofl^0,f,c
  1754   001C9E  0E00               	movlw	0
  1755   001CA0  2207               	addwfc	(??___xxtofl+1)^0,f,c
  1756   001CA2  2208               	addwfc	(??___xxtofl+2)^0,f,c
  1757   001CA4  2209               	addwfc	(??___xxtofl+3)^0,f,c
  1758   001CA6  C006  F00C         	movff	??___xxtofl,___xxtofl@arg
  1759   001CAA  C007  F00D         	movff	??___xxtofl+1,___xxtofl@arg+1
  1760   001CAE  C008  F00E         	movff	??___xxtofl+2,___xxtofl@arg+2
  1761   001CB2  C009  F00F         	movff	??___xxtofl+3,___xxtofl@arg+3
  1762   001CB6  EF65  F00E         	goto	l5645
  1763   001CBA                     l2282:
  1764   001CBA  C002  F00C         	movff	___xxtofl@val,___xxtofl@arg
  1765   001CBE  C003  F00D         	movff	___xxtofl@val+1,___xxtofl@arg+1
  1766   001CC2  C004  F00E         	movff	___xxtofl@val+2,___xxtofl@arg+2
  1767   001CC6  C005  F00F         	movff	___xxtofl@val+3,___xxtofl@arg+3
  1768   001CCA                     l5645:
  1769   001CCA  5002               	movf	___xxtofl@val^0,w,c
  1770   001CCC  1003               	iorwf	(___xxtofl@val+1)^0,w,c
  1771   001CCE  1004               	iorwf	(___xxtofl@val+2)^0,w,c
  1772   001CD0  1005               	iorwf	(___xxtofl@val+3)^0,w,c
  1773   001CD2  A4D8               	btfss	status,2,c
  1774   001CD4  EF6E  F00E         	goto	u4751
  1775   001CD8  EF70  F00E         	goto	u4750
  1776   001CDC                     u4751:
  1777   001CDC  EF7A  F00E         	goto	l5651
  1778   001CE0                     u4750:
  1779   001CE0  0E00               	movlw	0
  1780   001CE2  6E02               	movwf	?___xxtofl^0,c
  1781   001CE4  0E00               	movlw	0
  1782   001CE6  6E03               	movwf	(?___xxtofl+1)^0,c
  1783   001CE8  0E00               	movlw	0
  1784   001CEA  6E04               	movwf	(?___xxtofl+2)^0,c
  1785   001CEC  0E00               	movlw	0
  1786   001CEE  6E05               	movwf	(?___xxtofl+3)^0,c
  1787   001CF0  EF0B  F00F         	goto	l2285
  1788   001CF4                     l5651:
  1789   001CF4  0E96               	movlw	150
  1790   001CF6  6E0B               	movwf	___xxtofl@exp^0,c
  1791   001CF8  EF84  F00E         	goto	l5655
  1792   001CFC                     l5653:
  1793   001CFC  2A0B               	incf	___xxtofl@exp^0,f,c
  1794   001CFE  90D8               	bcf	status,0,c
  1795   001D00  320F               	rrcf	(___xxtofl@arg+3)^0,f,c
  1796   001D02  320E               	rrcf	(___xxtofl@arg+2)^0,f,c
  1797   001D04  320D               	rrcf	(___xxtofl@arg+1)^0,f,c
  1798   001D06  320C               	rrcf	___xxtofl@arg^0,f,c
  1799   001D08                     l5655:
  1800   001D08  0E00               	movlw	0
  1801   001D0A  140C               	andwf	___xxtofl@arg^0,w,c
  1802   001D0C  6E06               	movwf	??___xxtofl^0,c
  1803   001D0E  0E00               	movlw	0
  1804   001D10  140D               	andwf	(___xxtofl@arg+1)^0,w,c
  1805   001D12  6E07               	movwf	(??___xxtofl+1)^0,c
  1806   001D14  0E00               	movlw	0
  1807   001D16  140E               	andwf	(___xxtofl@arg+2)^0,w,c
  1808   001D18  6E08               	movwf	(??___xxtofl+2)^0,c
  1809   001D1A  0EFE               	movlw	254
  1810   001D1C  140F               	andwf	(___xxtofl@arg+3)^0,w,c
  1811   001D1E  6E09               	movwf	(??___xxtofl+3)^0,c
  1812   001D20  5006               	movf	??___xxtofl^0,w,c
  1813   001D22  1007               	iorwf	(??___xxtofl+1)^0,w,c
  1814   001D24  1008               	iorwf	(??___xxtofl+2)^0,w,c
  1815   001D26  1009               	iorwf	(??___xxtofl+3)^0,w,c
  1816   001D28  A4D8               	btfss	status,2,c
  1817   001D2A  EF99  F00E         	goto	u4761
  1818   001D2E  EF9B  F00E         	goto	u4760
  1819   001D32                     u4761:
  1820   001D32  EF7E  F00E         	goto	l5653
  1821   001D36                     u4760:
  1822   001D36  EFA9  F00E         	goto	l2289
  1823   001D3A                     l5657:
  1824   001D3A  2A0B               	incf	___xxtofl@exp^0,f,c
  1825   001D3C  0E01               	movlw	1
  1826   001D3E  260C               	addwf	___xxtofl@arg^0,f,c
  1827   001D40  0E00               	movlw	0
  1828   001D42  220D               	addwfc	(___xxtofl@arg+1)^0,f,c
  1829   001D44  220E               	addwfc	(___xxtofl@arg+2)^0,f,c
  1830   001D46  220F               	addwfc	(___xxtofl@arg+3)^0,f,c
  1831   001D48  90D8               	bcf	status,0,c
  1832   001D4A  320F               	rrcf	(___xxtofl@arg+3)^0,f,c
  1833   001D4C  320E               	rrcf	(___xxtofl@arg+2)^0,f,c
  1834   001D4E  320D               	rrcf	(___xxtofl@arg+1)^0,f,c
  1835   001D50  320C               	rrcf	___xxtofl@arg^0,f,c
  1836   001D52                     l2289:
  1837   001D52  0E00               	movlw	0
  1838   001D54  140C               	andwf	___xxtofl@arg^0,w,c
  1839   001D56  6E06               	movwf	??___xxtofl^0,c
  1840   001D58  0E00               	movlw	0
  1841   001D5A  140D               	andwf	(___xxtofl@arg+1)^0,w,c
  1842   001D5C  6E07               	movwf	(??___xxtofl+1)^0,c
  1843   001D5E  0E00               	movlw	0
  1844   001D60  140E               	andwf	(___xxtofl@arg+2)^0,w,c
  1845   001D62  6E08               	movwf	(??___xxtofl+2)^0,c
  1846   001D64  0EFF               	movlw	255
  1847   001D66  140F               	andwf	(___xxtofl@arg+3)^0,w,c
  1848   001D68  6E09               	movwf	(??___xxtofl+3)^0,c
  1849   001D6A  5006               	movf	??___xxtofl^0,w,c
  1850   001D6C  1007               	iorwf	(??___xxtofl+1)^0,w,c
  1851   001D6E  1008               	iorwf	(??___xxtofl+2)^0,w,c
  1852   001D70  1009               	iorwf	(??___xxtofl+3)^0,w,c
  1853   001D72  A4D8               	btfss	status,2,c
  1854   001D74  EFBE  F00E         	goto	u4771
  1855   001D78  EFC0  F00E         	goto	u4770
  1856   001D7C                     u4771:
  1857   001D7C  EF9D  F00E         	goto	l5657
  1858   001D80                     u4770:
  1859   001D80  EFC8  F00E         	goto	l5665
  1860   001D84                     l5663:
  1861   001D84  060B               	decf	___xxtofl@exp^0,f,c
  1862   001D86  90D8               	bcf	status,0,c
  1863   001D88  360C               	rlcf	___xxtofl@arg^0,f,c
  1864   001D8A  360D               	rlcf	(___xxtofl@arg+1)^0,f,c
  1865   001D8C  360E               	rlcf	(___xxtofl@arg+2)^0,f,c
  1866   001D8E  360F               	rlcf	(___xxtofl@arg+3)^0,f,c
  1867   001D90                     l5665:
  1868   001D90  BE0E               	btfsc	(___xxtofl@arg+2)^0,7,c
  1869   001D92  EFCD  F00E         	goto	u4781
  1870   001D96  EFCF  F00E         	goto	u4780
  1871   001D9A                     u4781:
  1872   001D9A  EFD7  F00E         	goto	l2296
  1873   001D9E                     u4780:
  1874   001D9E  0E02               	movlw	2
  1875   001DA0  600B               	cpfslt	___xxtofl@exp^0,c
  1876   001DA2  EFD5  F00E         	goto	u4791
  1877   001DA6  EFD7  F00E         	goto	u4790
  1878   001DAA                     u4791:
  1879   001DAA  EFC2  F00E         	goto	l5663
  1880   001DAE                     u4790:
  1881   001DAE                     l2296:
  1882   001DAE  B00B               	btfsc	___xxtofl@exp^0,0,c
  1883   001DB0  EFDC  F00E         	goto	u4801
  1884   001DB4  EFDE  F00E         	goto	u4800
  1885   001DB8                     u4801:
  1886   001DB8  EFDF  F00E         	goto	l5671
  1887   001DBC                     u4800:
  1888   001DBC  9E0E               	bcf	(___xxtofl@arg+2)^0,7,c
  1889   001DBE                     l5671:
  1890   001DBE  90D8               	bcf	status,0,c
  1891   001DC0  320B               	rrcf	___xxtofl@exp^0,f,c
  1892   001DC2  C00B  F006         	movff	___xxtofl@exp,??___xxtofl
  1893   001DC6  6A07               	clrf	(??___xxtofl+1)^0,c
  1894   001DC8  6A08               	clrf	(??___xxtofl+2)^0,c
  1895   001DCA  6A09               	clrf	(??___xxtofl+3)^0,c
  1896   001DCC  C006  F009         	movff	??___xxtofl,??___xxtofl+3
  1897   001DD0  6A08               	clrf	(??___xxtofl+2)^0,c
  1898   001DD2  6A07               	clrf	(??___xxtofl+1)^0,c
  1899   001DD4  6A06               	clrf	??___xxtofl^0,c
  1900   001DD6  5006               	movf	??___xxtofl^0,w,c
  1901   001DD8  120C               	iorwf	___xxtofl@arg^0,f,c
  1902   001DDA  5007               	movf	(??___xxtofl+1)^0,w,c
  1903   001DDC  120D               	iorwf	(___xxtofl@arg+1)^0,f,c
  1904   001DDE  5008               	movf	(??___xxtofl+2)^0,w,c
  1905   001DE0  120E               	iorwf	(___xxtofl@arg+2)^0,f,c
  1906   001DE2  5009               	movf	(??___xxtofl+3)^0,w,c
  1907   001DE4  120F               	iorwf	(___xxtofl@arg+3)^0,f,c
  1908   001DE6  500A               	movf	___xxtofl@sign^0,w,c
  1909   001DE8  B4D8               	btfsc	status,2,c
  1910   001DEA  EFF9  F00E         	goto	u4811
  1911   001DEE  EFFB  F00E         	goto	u4810
  1912   001DF2                     u4811:
  1913   001DF2  EF03  F00F         	goto	l5681
  1914   001DF6                     u4810:
  1915   001DF6  BE05               	btfsc	(___xxtofl@val+3)^0,7,c
  1916   001DF8  EF02  F00F         	goto	u4820
  1917   001DFC  EF00  F00F         	goto	u4821
  1918   001E00                     u4821:
  1919   001E00  EF03  F00F         	goto	l5681
  1920   001E04                     u4820:
  1921   001E04  8E0F               	bsf	(___xxtofl@arg+3)^0,7,c
  1922   001E06                     l5681:
  1923   001E06  C00C  F002         	movff	___xxtofl@arg,?___xxtofl
  1924   001E0A  C00D  F003         	movff	___xxtofl@arg+1,?___xxtofl+1
  1925   001E0E  C00E  F004         	movff	___xxtofl@arg+2,?___xxtofl+2
  1926   001E12  C00F  F005         	movff	___xxtofl@arg+3,?___xxtofl+3
  1927   001E16                     l2285:
  1928   001E16  0012               	return		;funcret
  1929   001E18                     __end_of___xxtofl:
  1930                           	callstack 0
  1931                           
  1932 ;; *************** function ___fltol *****************
  1933 ;; Defined at:
  1934 ;;		line 43 in file "D:\XC8\pic\sources\c99\common\fltol.c"
  1935 ;; Parameters:    Size  Location     Type
  1936 ;;  f1              4   56[COMRAM] unsigned char 
  1937 ;; Auto vars:     Size  Location     Type
  1938 ;;  exp1            1   65[COMRAM] unsigned char 
  1939 ;;  sign1           1   64[COMRAM] unsigned char 
  1940 ;; Return value:  Size  Location     Type
  1941 ;;                  4   56[COMRAM] long 
  1942 ;; Registers used:
  1943 ;;		wreg, status,2, status,0
  1944 ;; Tracked objects:
  1945 ;;		On entry : 0/0
  1946 ;;		On exit  : 0/0
  1947 ;;		Unchanged: 0/0
  1948 ;; Data sizes:     COMRAM   BANK0   BANK1   BANK2   BANK3   BANK4   BANK5   BANK6   BANK7   BANK8   BANK9  BANK10  BANK1
      +1  BANK12  BANK13  BANK14  BANK15
  1949 ;;      Params:         4       0       0       0       0       0       0       0       0       0       0       0       
      +0       0       0       0       0
  1950 ;;      Locals:         2       0       0       0       0       0       0       0       0       0       0       0       
      +0       0       0       0       0
  1951 ;;      Temps:          4       0       0       0       0       0       0       0       0       0       0       0       
      +0       0       0       0       0
  1952 ;;      Totals:        10       0       0       0       0       0       0       0       0       0       0       0       
      +0       0       0       0       0
  1953 ;;Total ram usage:       10 bytes
  1954 ;; Hardware stack levels used: 1
  1955 ;; Hardware stack levels required when called: 2
  1956 ;; This function calls:
  1957 ;;		Nothing
  1958 ;; This function is called by:
  1959 ;;		_I2C_Master_Clock_CFG
  1960 ;;		_CCP_PWM_Set_Duty
  1961 ;;		_USART_Baud_Rate_Calculation
  1962 ;; This function uses a non-reentrant model
  1963 ;;
  1964                           
  1965                           	psect	text12
  1966   001F40                     __ptext12:
  1967                           	callstack 0
  1968   001F40                     ___fltol:
  1969                           	callstack 26
  1970   001F40  343B               	rlcf	(___fltol@f1+2)^0,w,c
  1971   001F42  343C               	rlcf	(___fltol@f1+3)^0,w,c
  1972   001F44  6E42               	movwf	___fltol@exp1^0,c
  1973   001F46  5042               	movf	___fltol@exp1^0,w,c
  1974   001F48  A4D8               	btfss	status,2,c
  1975   001F4A  EFA9  F00F         	goto	u4661
  1976   001F4E  EFAB  F00F         	goto	u4660
  1977   001F52                     u4661:
  1978   001F52  EFB5  F00F         	goto	l5601
  1979   001F56                     u4660:
  1980   001F56                     l5597:
  1981   001F56  0E00               	movlw	0
  1982   001F58  6E39               	movwf	?___fltol^0,c
  1983   001F5A  0E00               	movlw	0
  1984   001F5C  6E3A               	movwf	(?___fltol+1)^0,c
  1985   001F5E  0E00               	movlw	0
  1986   001F60  6E3B               	movwf	(?___fltol+2)^0,c
  1987   001F62  0E00               	movlw	0
  1988   001F64  6E3C               	movwf	(?___fltol+3)^0,c
  1989   001F66  EF22  F010         	goto	l1924
  1990   001F6A                     l5601:
  1991   001F6A  C039  F03D         	movff	___fltol@f1,??___fltol
  1992   001F6E  C03A  F03E         	movff	___fltol@f1+1,??___fltol+1
  1993   001F72  C03B  F03F         	movff	___fltol@f1+2,??___fltol+2
  1994   001F76  C03C  F040         	movff	___fltol@f1+3,??___fltol+3
  1995   001F7A  0E20               	movlw	32
  1996   001F7C  EFC5  F00F         	goto	u4670
  1997   001F80                     u4675:
  1998   001F80  90D8               	bcf	status,0,c
  1999   001F82  3240               	rrcf	(??___fltol+3)^0,f,c
  2000   001F84  323F               	rrcf	(??___fltol+2)^0,f,c
  2001   001F86  323E               	rrcf	(??___fltol+1)^0,f,c
  2002   001F88  323D               	rrcf	??___fltol^0,f,c
  2003   001F8A                     u4670:
  2004   001F8A  2EE8               	decfsz	wreg,f,c
  2005   001F8C  EFC0  F00F         	goto	u4675
  2006   001F90  503D               	movf	??___fltol^0,w,c
  2007   001F92  6E41               	movwf	___fltol@sign1^0,c
  2008   001F94  8E3B               	bsf	(___fltol@f1+2)^0,7,c
  2009   001F96  0EFF               	movlw	255
  2010   001F98  1639               	andwf	___fltol@f1^0,f,c
  2011   001F9A  0EFF               	movlw	255
  2012   001F9C  163A               	andwf	(___fltol@f1+1)^0,f,c
  2013   001F9E  0EFF               	movlw	255
  2014   001FA0  163B               	andwf	(___fltol@f1+2)^0,f,c
  2015   001FA2  0E00               	movlw	0
  2016   001FA4  163C               	andwf	(___fltol@f1+3)^0,f,c
  2017   001FA6  0E96               	movlw	150
  2018   001FA8  5E42               	subwf	___fltol@exp1^0,f,c
  2019   001FAA  BE42               	btfsc	___fltol@exp1^0,7,c
  2020   001FAC  EFDC  F00F         	goto	u4680
  2021   001FB0  EFDA  F00F         	goto	u4681
  2022   001FB4                     u4681:
  2023   001FB4  EFF2  F00F         	goto	l5621
  2024   001FB8                     u4680:
  2025   001FB8  5042               	movf	___fltol@exp1^0,w,c
  2026   001FBA  0A80               	xorlw	128
  2027   001FBC  0F97               	addlw	151
  2028   001FBE  B0D8               	btfsc	status,0,c
  2029   001FC0  EFE4  F00F         	goto	u4691
  2030   001FC4  EFE6  F00F         	goto	u4690
  2031   001FC8                     u4691:
  2032   001FC8  EFE8  F00F         	goto	l5617
  2033   001FCC                     u4690:
  2034   001FCC  EFAB  F00F         	goto	l5597
  2035   001FD0                     l5617:
  2036   001FD0  90D8               	bcf	status,0,c
  2037   001FD2  323C               	rrcf	(___fltol@f1+3)^0,f,c
  2038   001FD4  323B               	rrcf	(___fltol@f1+2)^0,f,c
  2039   001FD6  323A               	rrcf	(___fltol@f1+1)^0,f,c
  2040   001FD8  3239               	rrcf	___fltol@f1^0,f,c
  2041   001FDA  3E42               	incfsz	___fltol@exp1^0,f,c
  2042   001FDC  EFE8  F00F         	goto	l5617
  2043   001FE0  EF0A  F010         	goto	l5631
  2044   001FE4                     l5621:
  2045   001FE4  0E1F               	movlw	31
  2046   001FE6  6442               	cpfsgt	___fltol@exp1^0,c
  2047   001FE8  EFF8  F00F         	goto	u4701
  2048   001FEC  EFFA  F00F         	goto	u4700
  2049   001FF0                     u4701:
  2050   001FF0  EF02  F010         	goto	l5629
  2051   001FF4                     u4700:
  2052   001FF4  EFAB  F00F         	goto	l5597
  2053   001FF8                     l5627:
  2054   001FF8  90D8               	bcf	status,0,c
  2055   001FFA  3639               	rlcf	___fltol@f1^0,f,c
  2056   001FFC  363A               	rlcf	(___fltol@f1+1)^0,f,c
  2057   001FFE  363B               	rlcf	(___fltol@f1+2)^0,f,c
  2058   002000  363C               	rlcf	(___fltol@f1+3)^0,f,c
  2059   002002  0642               	decf	___fltol@exp1^0,f,c
  2060   002004                     l5629:
  2061   002004  5042               	movf	___fltol@exp1^0,w,c
  2062   002006  A4D8               	btfss	status,2,c
  2063   002008  EF08  F010         	goto	u4711
  2064   00200C  EF0A  F010         	goto	u4710
  2065   002010                     u4711:
  2066   002010  EFFC  F00F         	goto	l5627
  2067   002014                     u4710:
  2068   002014                     l5631:
  2069   002014  5041               	movf	___fltol@sign1^0,w,c
  2070   002016  B4D8               	btfsc	status,2,c
  2071   002018  EF10  F010         	goto	u4721
  2072   00201C  EF12  F010         	goto	u4720
  2073   002020                     u4721:
  2074   002020  EF1A  F010         	goto	l5635
  2075   002024                     u4720:
  2076   002024  1E3C               	comf	(___fltol@f1+3)^0,f,c
  2077   002026  1E3B               	comf	(___fltol@f1+2)^0,f,c
  2078   002028  1E3A               	comf	(___fltol@f1+1)^0,f,c
  2079   00202A  6C39               	negf	___fltol@f1^0,c
  2080   00202C  0E00               	movlw	0
  2081   00202E  223A               	addwfc	(___fltol@f1+1)^0,f,c
  2082   002030  223B               	addwfc	(___fltol@f1+2)^0,f,c
  2083   002032  223C               	addwfc	(___fltol@f1+3)^0,f,c
  2084   002034                     l5635:
  2085   002034  C039  F039         	movff	___fltol@f1,?___fltol
  2086   002038  C03A  F03A         	movff	___fltol@f1+1,?___fltol+1
  2087   00203C  C03B  F03B         	movff	___fltol@f1+2,?___fltol+2
  2088   002040  C03C  F03C         	movff	___fltol@f1+3,?___fltol+3
  2089   002044                     l1924:
  2090   002044  0012               	return		;funcret
  2091   002046                     __end_of___fltol:
  2092                           	callstack 0
  2093                           
  2094 ;; *************** function ___fldiv *****************
  2095 ;; Defined at:
  2096 ;;		line 11 in file "D:\XC8\pic\sources\c99\common\sprcdiv.c"
  2097 ;; Parameters:    Size  Location     Type
  2098 ;;  b               4   15[COMRAM] long 
  2099 ;;  a               4   19[COMRAM] long 
  2100 ;; Auto vars:     Size  Location     Type
  2101 ;;  grs             4   34[COMRAM] unsigned long 
  2102 ;;  rem             4   27[COMRAM] unsigned long 
  2103 ;;  new_exp         2   32[COMRAM] short 
  2104 ;;  aexp            1   39[COMRAM] unsigned char 
  2105 ;;  bexp            1   38[COMRAM] unsigned char 
  2106 ;;  sign            1   31[COMRAM] unsigned char 
  2107 ;; Return value:  Size  Location     Type
  2108 ;;                  4   15[COMRAM] unsigned char 
  2109 ;; Registers used:
  2110 ;;		wreg, status,2, status,0
  2111 ;; Tracked objects:
  2112 ;;		On entry : 0/0
  2113 ;;		On exit  : 0/0
  2114 ;;		Unchanged: 0/0
  2115 ;; Data sizes:     COMRAM   BANK0   BANK1   BANK2   BANK3   BANK4   BANK5   BANK6   BANK7   BANK8   BANK9  BANK10  BANK1
      +1  BANK12  BANK13  BANK14  BANK15
  2116 ;;      Params:         8       0       0       0       0       0       0       0       0       0       0       0       
      +0       0       0       0       0
  2117 ;;      Locals:        13       0       0       0       0       0       0       0       0       0       0       0       
      +0       0       0       0       0
  2118 ;;      Temps:          4       0       0       0       0       0       0       0       0       0       0       0       
      +0       0       0       0       0
  2119 ;;      Totals:        25       0       0       0       0       0       0       0       0       0       0       0       
      +0       0       0       0       0
  2120 ;;Total ram usage:       25 bytes
  2121 ;; Hardware stack levels used: 1
  2122 ;; Hardware stack levels required when called: 2
  2123 ;; This function calls:
  2124 ;;		Nothing
  2125 ;; This function is called by:
  2126 ;;		_I2C_Master_Clock_CFG
  2127 ;;		_CCP_PWM_Set_Duty
  2128 ;;		_USART_Baud_Rate_Calculation
  2129 ;; This function uses a non-reentrant model
  2130 ;;
  2131                           
  2132                           	psect	text13
  2133   0018CA                     __ptext13:
  2134                           	callstack 0
  2135   0018CA                     ___fldiv:
  2136                           	callstack 26
  2137   0018CA  5013               	movf	(___fldiv@b+3)^0,w,c
  2138   0018CC  0B80               	andlw	128
  2139   0018CE  6E20               	movwf	___fldiv@sign^0,c
  2140   0018D0  5013               	movf	(___fldiv@b+3)^0,w,c
  2141   0018D2  2413               	addwf	(___fldiv@b+3)^0,w,c
  2142   0018D4  6E27               	movwf	___fldiv@bexp^0,c
  2143   0018D6  AE12               	btfss	(___fldiv@b+2)^0,7,c
  2144   0018D8  EF70  F00C         	goto	u4431
  2145   0018DC  EF72  F00C         	goto	u4430
  2146   0018E0                     u4431:
  2147   0018E0  EF73  F00C         	goto	l5463
  2148   0018E4                     u4430:
  2149   0018E4  8027               	bsf	___fldiv@bexp^0,0,c
  2150   0018E6                     l5463:
  2151   0018E6  5027               	movf	___fldiv@bexp^0,w,c
  2152   0018E8  B4D8               	btfsc	status,2,c
  2153   0018EA  EF79  F00C         	goto	u4441
  2154   0018EE  EF7B  F00C         	goto	u4440
  2155   0018F2                     u4441:
  2156   0018F2  EF90  F00C         	goto	l5473
  2157   0018F6                     u4440:
  2158   0018F6  2827               	incf	___fldiv@bexp^0,w,c
  2159   0018F8  A4D8               	btfss	status,2,c
  2160   0018FA  EF81  F00C         	goto	u4451
  2161   0018FE  EF83  F00C         	goto	u4450
  2162   001902                     u4451:
  2163   001902  EF8B  F00C         	goto	l5469
  2164   001906                     u4450:
  2165   001906  0E00               	movlw	0
  2166   001908  6E10               	movwf	___fldiv@b^0,c
  2167   00190A  0E00               	movlw	0
  2168   00190C  6E11               	movwf	(___fldiv@b+1)^0,c
  2169   00190E  0E00               	movlw	0
  2170   001910  6E12               	movwf	(___fldiv@b+2)^0,c
  2171   001912  0E00               	movlw	0
  2172   001914  6E13               	movwf	(___fldiv@b+3)^0,c
  2173   001916                     l5469:
  2174   001916  8E12               	bsf	(___fldiv@b+2)^0,7,c
  2175   001918  0E00               	movlw	0
  2176   00191A  6E13               	movwf	(___fldiv@b+3)^0,c
  2177   00191C  EF98  F00C         	goto	l5475
  2178   001920                     l5473:
  2179   001920  0E00               	movlw	0
  2180   001922  6E10               	movwf	___fldiv@b^0,c
  2181   001924  0E00               	movlw	0
  2182   001926  6E11               	movwf	(___fldiv@b+1)^0,c
  2183   001928  0E00               	movlw	0
  2184   00192A  6E12               	movwf	(___fldiv@b+2)^0,c
  2185   00192C  0E00               	movlw	0
  2186   00192E  6E13               	movwf	(___fldiv@b+3)^0,c
  2187   001930                     l5475:
  2188   001930  5017               	movf	(___fldiv@a+3)^0,w,c
  2189   001932  0B80               	andlw	128
  2190   001934  1A20               	xorwf	___fldiv@sign^0,f,c
  2191   001936  5017               	movf	(___fldiv@a+3)^0,w,c
  2192   001938  2417               	addwf	(___fldiv@a+3)^0,w,c
  2193   00193A  6E28               	movwf	___fldiv@aexp^0,c
  2194   00193C  AE16               	btfss	(___fldiv@a+2)^0,7,c
  2195   00193E  EFA3  F00C         	goto	u4461
  2196   001942  EFA5  F00C         	goto	u4460
  2197   001946                     u4461:
  2198   001946  EFA6  F00C         	goto	l5483
  2199   00194A                     u4460:
  2200   00194A  8028               	bsf	___fldiv@aexp^0,0,c
  2201   00194C                     l5483:
  2202   00194C  5028               	movf	___fldiv@aexp^0,w,c
  2203   00194E  B4D8               	btfsc	status,2,c
  2204   001950  EFAC  F00C         	goto	u4471
  2205   001954  EFAE  F00C         	goto	u4470
  2206   001958                     u4471:
  2207   001958  EFC3  F00C         	goto	l5493
  2208   00195C                     u4470:
  2209   00195C  2828               	incf	___fldiv@aexp^0,w,c
  2210   00195E  A4D8               	btfss	status,2,c
  2211   001960  EFB4  F00C         	goto	u4481
  2212   001964  EFB6  F00C         	goto	u4480
  2213   001968                     u4481:
  2214   001968  EFBE  F00C         	goto	l5489
  2215   00196C                     u4480:
  2216   00196C  0E00               	movlw	0
  2217   00196E  6E14               	movwf	___fldiv@a^0,c
  2218   001970  0E00               	movlw	0
  2219   001972  6E15               	movwf	(___fldiv@a+1)^0,c
  2220   001974  0E00               	movlw	0
  2221   001976  6E16               	movwf	(___fldiv@a+2)^0,c
  2222   001978  0E00               	movlw	0
  2223   00197A  6E17               	movwf	(___fldiv@a+3)^0,c
  2224   00197C                     l5489:
  2225   00197C  8E16               	bsf	(___fldiv@a+2)^0,7,c
  2226   00197E  0E00               	movlw	0
  2227   001980  6E17               	movwf	(___fldiv@a+3)^0,c
  2228   001982  EFCB  F00C         	goto	l5495
  2229   001986                     l5493:
  2230   001986  0E00               	movlw	0
  2231   001988  6E14               	movwf	___fldiv@a^0,c
  2232   00198A  0E00               	movlw	0
  2233   00198C  6E15               	movwf	(___fldiv@a+1)^0,c
  2234   00198E  0E00               	movlw	0
  2235   001990  6E16               	movwf	(___fldiv@a+2)^0,c
  2236   001992  0E00               	movlw	0
  2237   001994  6E17               	movwf	(___fldiv@a+3)^0,c
  2238   001996                     l5495:
  2239   001996  5014               	movf	___fldiv@a^0,w,c
  2240   001998  1015               	iorwf	(___fldiv@a+1)^0,w,c
  2241   00199A  1016               	iorwf	(___fldiv@a+2)^0,w,c
  2242   00199C  1017               	iorwf	(___fldiv@a+3)^0,w,c
  2243   00199E  A4D8               	btfss	status,2,c
  2244   0019A0  EFD4  F00C         	goto	u4491
  2245   0019A4  EFD6  F00C         	goto	u4490
  2246   0019A8                     u4491:
  2247   0019A8  EFEE  F00C         	goto	l5507
  2248   0019AC                     u4490:
  2249   0019AC  0E00               	movlw	0
  2250   0019AE  6E10               	movwf	___fldiv@b^0,c
  2251   0019B0  0E00               	movlw	0
  2252   0019B2  6E11               	movwf	(___fldiv@b+1)^0,c
  2253   0019B4  0E00               	movlw	0
  2254   0019B6  6E12               	movwf	(___fldiv@b+2)^0,c
  2255   0019B8  0E00               	movlw	0
  2256   0019BA  6E13               	movwf	(___fldiv@b+3)^0,c
  2257   0019BC  0E80               	movlw	128
  2258   0019BE  1212               	iorwf	(___fldiv@b+2)^0,f,c
  2259   0019C0  0E7F               	movlw	127
  2260   0019C2  1213               	iorwf	(___fldiv@b+3)^0,f,c
  2261   0019C4                     l5501:
  2262   0019C4  5020               	movf	___fldiv@sign^0,w,c
  2263   0019C6  1213               	iorwf	(___fldiv@b+3)^0,f,c
  2264   0019C8  C010  F010         	movff	___fldiv@b,?___fldiv
  2265   0019CC  C011  F011         	movff	___fldiv@b+1,?___fldiv+1
  2266   0019D0  C012  F012         	movff	___fldiv@b+2,?___fldiv+2
  2267   0019D4  C013  F013         	movff	___fldiv@b+3,?___fldiv+3
  2268   0019D8  EF31  F00E         	goto	l2209
  2269   0019DC                     l5507:
  2270   0019DC  5027               	movf	___fldiv@bexp^0,w,c
  2271   0019DE  A4D8               	btfss	status,2,c
  2272   0019E0  EFF4  F00C         	goto	u4501
  2273   0019E4  EFF6  F00C         	goto	u4500
  2274   0019E8                     u4501:
  2275   0019E8  EF00  F00D         	goto	l5515
  2276   0019EC                     u4500:
  2277   0019EC  0E00               	movlw	0
  2278   0019EE  6E10               	movwf	?___fldiv^0,c
  2279   0019F0  0E00               	movlw	0
  2280   0019F2  6E11               	movwf	(?___fldiv+1)^0,c
  2281   0019F4  0E00               	movlw	0
  2282   0019F6  6E12               	movwf	(?___fldiv+2)^0,c
  2283   0019F8  0E00               	movlw	0
  2284   0019FA  6E13               	movwf	(?___fldiv+3)^0,c
  2285   0019FC  EF31  F00E         	goto	l2209
  2286   001A00                     l5515:
  2287   001A00  5028               	movf	___fldiv@aexp^0,w,c
  2288   001A02  C027  F018         	movff	___fldiv@bexp,??___fldiv
  2289   001A06  6A19               	clrf	(??___fldiv+1)^0,c
  2290   001A08  5E18               	subwf	??___fldiv^0,f,c
  2291   001A0A  0E00               	movlw	0
  2292   001A0C  5A19               	subwfb	(??___fldiv+1)^0,f,c
  2293   001A0E  0E7F               	movlw	127
  2294   001A10  2418               	addwf	??___fldiv^0,w,c
  2295   001A12  6E21               	movwf	___fldiv@new_exp^0,c
  2296   001A14  0E00               	movlw	0
  2297   001A16  2019               	addwfc	(??___fldiv+1)^0,w,c
  2298   001A18  6E22               	movwf	(___fldiv@new_exp+1)^0,c
  2299   001A1A  C010  F01C         	movff	___fldiv@b,___fldiv@rem
  2300   001A1E  C011  F01D         	movff	___fldiv@b+1,___fldiv@rem+1
  2301   001A22  C012  F01E         	movff	___fldiv@b+2,___fldiv@rem+2
  2302   001A26  C013  F01F         	movff	___fldiv@b+3,___fldiv@rem+3
  2303   001A2A  0E00               	movlw	0
  2304   001A2C  6E10               	movwf	___fldiv@b^0,c
  2305   001A2E  0E00               	movlw	0
  2306   001A30  6E11               	movwf	(___fldiv@b+1)^0,c
  2307   001A32  0E00               	movlw	0
  2308   001A34  6E12               	movwf	(___fldiv@b+2)^0,c
  2309   001A36  0E00               	movlw	0
  2310   001A38  6E13               	movwf	(___fldiv@b+3)^0,c
  2311   001A3A  0E00               	movlw	0
  2312   001A3C  6E23               	movwf	___fldiv@grs^0,c
  2313   001A3E  0E00               	movlw	0
  2314   001A40  6E24               	movwf	(___fldiv@grs+1)^0,c
  2315   001A42  0E00               	movlw	0
  2316   001A44  6E25               	movwf	(___fldiv@grs+2)^0,c
  2317   001A46  0E00               	movlw	0
  2318   001A48  6E26               	movwf	(___fldiv@grs+3)^0,c
  2319   001A4A  0E00               	movlw	0
  2320   001A4C  6E28               	movwf	___fldiv@aexp^0,c
  2321   001A4E  EF61  F00D         	goto	l2211
  2322   001A52                     l5525:
  2323   001A52  5028               	movf	___fldiv@aexp^0,w,c
  2324   001A54  B4D8               	btfsc	status,2,c
  2325   001A56  EF2F  F00D         	goto	u4511
  2326   001A5A  EF31  F00D         	goto	u4510
  2327   001A5E                     u4511:
  2328   001A5E  EF48  F00D         	goto	l5533
  2329   001A62                     u4510:
  2330   001A62  90D8               	bcf	status,0,c
  2331   001A64  361C               	rlcf	___fldiv@rem^0,f,c
  2332   001A66  361D               	rlcf	(___fldiv@rem+1)^0,f,c
  2333   001A68  361E               	rlcf	(___fldiv@rem+2)^0,f,c
  2334   001A6A  361F               	rlcf	(___fldiv@rem+3)^0,f,c
  2335   001A6C  90D8               	bcf	status,0,c
  2336   001A6E  3610               	rlcf	___fldiv@b^0,f,c
  2337   001A70  3611               	rlcf	(___fldiv@b+1)^0,f,c
  2338   001A72  3612               	rlcf	(___fldiv@b+2)^0,f,c
  2339   001A74  3613               	rlcf	(___fldiv@b+3)^0,f,c
  2340   001A76  AE26               	btfss	(___fldiv@grs+3)^0,7,c
  2341   001A78  EF40  F00D         	goto	u4521
  2342   001A7C  EF42  F00D         	goto	u4520
  2343   001A80                     u4521:
  2344   001A80  EF43  F00D         	goto	l2214
  2345   001A84                     u4520:
  2346   001A84  8010               	bsf	___fldiv@b^0,0,c
  2347   001A86                     l2214:
  2348   001A86  90D8               	bcf	status,0,c
  2349   001A88  3623               	rlcf	___fldiv@grs^0,f,c
  2350   001A8A  3624               	rlcf	(___fldiv@grs+1)^0,f,c
  2351   001A8C  3625               	rlcf	(___fldiv@grs+2)^0,f,c
  2352   001A8E  3626               	rlcf	(___fldiv@grs+3)^0,f,c
  2353   001A90                     l5533:
  2354   001A90  5014               	movf	___fldiv@a^0,w,c
  2355   001A92  5C1C               	subwf	___fldiv@rem^0,w,c
  2356   001A94  5015               	movf	(___fldiv@a+1)^0,w,c
  2357   001A96  581D               	subwfb	(___fldiv@rem+1)^0,w,c
  2358   001A98  5016               	movf	(___fldiv@a+2)^0,w,c
  2359   001A9A  581E               	subwfb	(___fldiv@rem+2)^0,w,c
  2360   001A9C  5017               	movf	(___fldiv@a+3)^0,w,c
  2361   001A9E  581F               	subwfb	(___fldiv@rem+3)^0,w,c
  2362   001AA0  A0D8               	btfss	status,0,c
  2363   001AA2  EF55  F00D         	goto	u4531
  2364   001AA6  EF57  F00D         	goto	u4530
  2365   001AAA                     u4531:
  2366   001AAA  EF60  F00D         	goto	l5539
  2367   001AAE                     u4530:
  2368   001AAE  8C26               	bsf	(___fldiv@grs+3)^0,6,c
  2369   001AB0  5014               	movf	___fldiv@a^0,w,c
  2370   001AB2  5E1C               	subwf	___fldiv@rem^0,f,c
  2371   001AB4  5015               	movf	(___fldiv@a+1)^0,w,c
  2372   001AB6  5A1D               	subwfb	(___fldiv@rem+1)^0,f,c
  2373   001AB8  5016               	movf	(___fldiv@a+2)^0,w,c
  2374   001ABA  5A1E               	subwfb	(___fldiv@rem+2)^0,f,c
  2375   001ABC  5017               	movf	(___fldiv@a+3)^0,w,c
  2376   001ABE  5A1F               	subwfb	(___fldiv@rem+3)^0,f,c
  2377   001AC0                     l5539:
  2378   001AC0  2A28               	incf	___fldiv@aexp^0,f,c
  2379   001AC2                     l2211:
  2380   001AC2  0E19               	movlw	25
  2381   001AC4  6428               	cpfsgt	___fldiv@aexp^0,c
  2382   001AC6  EF67  F00D         	goto	u4541
  2383   001ACA  EF69  F00D         	goto	u4540
  2384   001ACE                     u4541:
  2385   001ACE  EF29  F00D         	goto	l5525
  2386   001AD2                     u4540:
  2387   001AD2  501C               	movf	___fldiv@rem^0,w,c
  2388   001AD4  101D               	iorwf	(___fldiv@rem+1)^0,w,c
  2389   001AD6  101E               	iorwf	(___fldiv@rem+2)^0,w,c
  2390   001AD8  101F               	iorwf	(___fldiv@rem+3)^0,w,c
  2391   001ADA  B4D8               	btfsc	status,2,c
  2392   001ADC  EF72  F00D         	goto	u4551
  2393   001AE0  EF74  F00D         	goto	u4550
  2394   001AE4                     u4551:
  2395   001AE4  EF8C  F00D         	goto	l5551
  2396   001AE8                     u4550:
  2397   001AE8  8023               	bsf	___fldiv@grs^0,0,c
  2398   001AEA  EF8C  F00D         	goto	l5551
  2399   001AEE                     l5545:
  2400   001AEE  90D8               	bcf	status,0,c
  2401   001AF0  3610               	rlcf	___fldiv@b^0,f,c
  2402   001AF2  3611               	rlcf	(___fldiv@b+1)^0,f,c
  2403   001AF4  3612               	rlcf	(___fldiv@b+2)^0,f,c
  2404   001AF6  3613               	rlcf	(___fldiv@b+3)^0,f,c
  2405   001AF8  AE26               	btfss	(___fldiv@grs+3)^0,7,c
  2406   001AFA  EF81  F00D         	goto	u4561
  2407   001AFE  EF83  F00D         	goto	u4560
  2408   001B02                     u4561:
  2409   001B02  EF84  F00D         	goto	l2220
  2410   001B06                     u4560:
  2411   001B06  8010               	bsf	___fldiv@b^0,0,c
  2412   001B08                     l2220:
  2413   001B08  90D8               	bcf	status,0,c
  2414   001B0A  3623               	rlcf	___fldiv@grs^0,f,c
  2415   001B0C  3624               	rlcf	(___fldiv@grs+1)^0,f,c
  2416   001B0E  3625               	rlcf	(___fldiv@grs+2)^0,f,c
  2417   001B10  3626               	rlcf	(___fldiv@grs+3)^0,f,c
  2418   001B12  0621               	decf	___fldiv@new_exp^0,f,c
  2419   001B14  A0D8               	btfss	status,0,c
  2420   001B16  0622               	decf	(___fldiv@new_exp+1)^0,f,c
  2421   001B18                     l5551:
  2422   001B18  AE12               	btfss	(___fldiv@b+2)^0,7,c
  2423   001B1A  EF91  F00D         	goto	u4571
  2424   001B1E  EF93  F00D         	goto	u4570
  2425   001B22                     u4571:
  2426   001B22  EF77  F00D         	goto	l5545
  2427   001B26                     u4570:
  2428   001B26  0E00               	movlw	0
  2429   001B28  6E28               	movwf	___fldiv@aexp^0,c
  2430   001B2A  AE26               	btfss	(___fldiv@grs+3)^0,7,c
  2431   001B2C  EF9A  F00D         	goto	u4581
  2432   001B30  EF9C  F00D         	goto	u4580
  2433   001B34                     u4581:
  2434   001B34  EFC0  F00D         	goto	l2222
  2435   001B38                     u4580:
  2436   001B38  0EFF               	movlw	255
  2437   001B3A  1423               	andwf	___fldiv@grs^0,w,c
  2438   001B3C  6E18               	movwf	??___fldiv^0,c
  2439   001B3E  0EFF               	movlw	255
  2440   001B40  1424               	andwf	(___fldiv@grs+1)^0,w,c
  2441   001B42  6E19               	movwf	(??___fldiv+1)^0,c
  2442   001B44  0EFF               	movlw	255
  2443   001B46  1425               	andwf	(___fldiv@grs+2)^0,w,c
  2444   001B48  6E1A               	movwf	(??___fldiv+2)^0,c
  2445   001B4A  0E7F               	movlw	127
  2446   001B4C  1426               	andwf	(___fldiv@grs+3)^0,w,c
  2447   001B4E  6E1B               	movwf	(??___fldiv+3)^0,c
  2448   001B50  5018               	movf	??___fldiv^0,w,c
  2449   001B52  1019               	iorwf	(??___fldiv+1)^0,w,c
  2450   001B54  101A               	iorwf	(??___fldiv+2)^0,w,c
  2451   001B56  101B               	iorwf	(??___fldiv+3)^0,w,c
  2452   001B58  B4D8               	btfsc	status,2,c
  2453   001B5A  EFB1  F00D         	goto	u4591
  2454   001B5E  EFB3  F00D         	goto	u4590
  2455   001B62                     u4591:
  2456   001B62  EFB7  F00D         	goto	l2223
  2457   001B66                     u4590:
  2458   001B66                     l5559:
  2459   001B66  0E01               	movlw	1
  2460   001B68  6E28               	movwf	___fldiv@aexp^0,c
  2461   001B6A  EFC0  F00D         	goto	l2222
  2462   001B6E                     l2223:
  2463   001B6E  A010               	btfss	___fldiv@b^0,0,c
  2464   001B70  EFBC  F00D         	goto	u4601
  2465   001B74  EFBE  F00D         	goto	u4600
  2466   001B78                     u4601:
  2467   001B78  EFC0  F00D         	goto	l2222
  2468   001B7C                     u4600:
  2469   001B7C  EFB3  F00D         	goto	l5559
  2470   001B80                     l2222:
  2471   001B80  5028               	movf	___fldiv@aexp^0,w,c
  2472   001B82  B4D8               	btfsc	status,2,c
  2473   001B84  EFC6  F00D         	goto	u4611
  2474   001B88  EFC8  F00D         	goto	u4610
  2475   001B8C                     u4611:
  2476   001B8C  EFEC  F00D         	goto	l5571
  2477   001B90                     u4610:
  2478   001B90  0E01               	movlw	1
  2479   001B92  2610               	addwf	___fldiv@b^0,f,c
  2480   001B94  0E00               	movlw	0
  2481   001B96  2211               	addwfc	(___fldiv@b+1)^0,f,c
  2482   001B98  2212               	addwfc	(___fldiv@b+2)^0,f,c
  2483   001B9A  2213               	addwfc	(___fldiv@b+3)^0,f,c
  2484   001B9C  A013               	btfss	(___fldiv@b+3)^0,0,c
  2485   001B9E  EFD3  F00D         	goto	u4621
  2486   001BA2  EFD5  F00D         	goto	u4620
  2487   001BA6                     u4621:
  2488   001BA6  EFEC  F00D         	goto	l5571
  2489   001BAA                     u4620:
  2490   001BAA  C010  F018         	movff	___fldiv@b,??___fldiv
  2491   001BAE  C011  F019         	movff	___fldiv@b+1,??___fldiv+1
  2492   001BB2  C012  F01A         	movff	___fldiv@b+2,??___fldiv+2
  2493   001BB6  C013  F01B         	movff	___fldiv@b+3,??___fldiv+3
  2494   001BBA  341B               	rlcf	(??___fldiv+3)^0,w,c
  2495   001BBC  321B               	rrcf	(??___fldiv+3)^0,f,c
  2496   001BBE  321A               	rrcf	(??___fldiv+2)^0,f,c
  2497   001BC0  3219               	rrcf	(??___fldiv+1)^0,f,c
  2498   001BC2  3218               	rrcf	??___fldiv^0,f,c
  2499   001BC4  C018  F010         	movff	??___fldiv,___fldiv@b
  2500   001BC8  C019  F011         	movff	??___fldiv+1,___fldiv@b+1
  2501   001BCC  C01A  F012         	movff	??___fldiv+2,___fldiv@b+2
  2502   001BD0  C01B  F013         	movff	??___fldiv+3,___fldiv@b+3
  2503   001BD4  4A21               	infsnz	___fldiv@new_exp^0,f,c
  2504   001BD6  2A22               	incf	(___fldiv@new_exp+1)^0,f,c
  2505   001BD8                     l5571:
  2506   001BD8  BE22               	btfsc	(___fldiv@new_exp+1)^0,7,c
  2507   001BDA  EFF7  F00D         	goto	u4631
  2508   001BDE  5022               	movf	(___fldiv@new_exp+1)^0,w,c
  2509   001BE0  E108               	bnz	u4630
  2510   001BE2  2821               	incf	___fldiv@new_exp^0,w,c
  2511   001BE4  A0D8               	btfss	status,0,c
  2512   001BE6  EFF7  F00D         	goto	u4631
  2513   001BEA  EFF9  F00D         	goto	u4630
  2514   001BEE                     u4631:
  2515   001BEE  EF04  F00E         	goto	l5575
  2516   001BF2                     u4630:
  2517   001BF2  0E00               	movlw	0
  2518   001BF4  6E22               	movwf	(___fldiv@new_exp+1)^0,c
  2519   001BF6  6821               	setf	___fldiv@new_exp^0,c
  2520   001BF8  0E00               	movlw	0
  2521   001BFA  6E10               	movwf	___fldiv@b^0,c
  2522   001BFC  0E00               	movlw	0
  2523   001BFE  6E11               	movwf	(___fldiv@b+1)^0,c
  2524   001C00  0E00               	movlw	0
  2525   001C02  6E12               	movwf	(___fldiv@b+2)^0,c
  2526   001C04  0E00               	movlw	0
  2527   001C06  6E13               	movwf	(___fldiv@b+3)^0,c
  2528   001C08                     l5575:
  2529   001C08  BE22               	btfsc	(___fldiv@new_exp+1)^0,7,c
  2530   001C0A  EF11  F00E         	goto	u4640
  2531   001C0E  5022               	movf	(___fldiv@new_exp+1)^0,w,c
  2532   001C10  E106               	bnz	u4641
  2533   001C12  0421               	decf	___fldiv@new_exp^0,w,c
  2534   001C14  B0D8               	btfsc	status,0,c
  2535   001C16  EF0F  F00E         	goto	u4641
  2536   001C1A  EF11  F00E         	goto	u4640
  2537   001C1E                     u4641:
  2538   001C1E  EF1F  F00E         	goto	l5579
  2539   001C22                     u4640:
  2540   001C22  0E00               	movlw	0
  2541   001C24  6E22               	movwf	(___fldiv@new_exp+1)^0,c
  2542   001C26  0E00               	movlw	0
  2543   001C28  6E21               	movwf	___fldiv@new_exp^0,c
  2544   001C2A  0E00               	movlw	0
  2545   001C2C  6E10               	movwf	___fldiv@b^0,c
  2546   001C2E  0E00               	movlw	0
  2547   001C30  6E11               	movwf	(___fldiv@b+1)^0,c
  2548   001C32  0E00               	movlw	0
  2549   001C34  6E12               	movwf	(___fldiv@b+2)^0,c
  2550   001C36  0E00               	movlw	0
  2551   001C38  6E13               	movwf	(___fldiv@b+3)^0,c
  2552   001C3A  0E00               	movlw	0
  2553   001C3C  6E20               	movwf	___fldiv@sign^0,c
  2554   001C3E                     l5579:
  2555   001C3E  C021  F027         	movff	___fldiv@new_exp,___fldiv@bexp
  2556   001C42  A027               	btfss	___fldiv@bexp^0,0,c
  2557   001C44  EF26  F00E         	goto	u4651
  2558   001C48  EF28  F00E         	goto	u4650
  2559   001C4C                     u4651:
  2560   001C4C  EF2B  F00E         	goto	l5585
  2561   001C50                     u4650:
  2562   001C50  8E12               	bsf	(___fldiv@b+2)^0,7,c
  2563   001C52  EF2C  F00E         	goto	l5587
  2564   001C56                     l5585:
  2565   001C56  9E12               	bcf	(___fldiv@b+2)^0,7,c
  2566   001C58                     l5587:
  2567   001C58  90D8               	bcf	status,0,c
  2568   001C5A  3027               	rrcf	___fldiv@bexp^0,w,c
  2569   001C5C  6E13               	movwf	(___fldiv@b+3)^0,c
  2570   001C5E  EFE2  F00C         	goto	l5501
  2571   001C62                     l2209:
  2572   001C62  0012               	return		;funcret
  2573   001C64                     __end_of___fldiv:
  2574                           	callstack 0
  2575                           
  2576 ;; *************** function ___fladd *****************
  2577 ;; Defined at:
  2578 ;;		line 10 in file "D:\XC8\pic\sources\c99\common\sprcadd.c"
  2579 ;; Parameters:    Size  Location     Type
  2580 ;;  b               4   40[COMRAM] unsigned char 
  2581 ;;  a               4   44[COMRAM] unsigned char 
  2582 ;; Auto vars:     Size  Location     Type
  2583 ;;  grs             1   55[COMRAM] unsigned char 
  2584 ;;  bexp            1   54[COMRAM] unsigned char 
  2585 ;;  aexp            1   53[COMRAM] unsigned char 
  2586 ;;  signs           1   52[COMRAM] unsigned char 
  2587 ;; Return value:  Size  Location     Type
  2588 ;;                  4   40[COMRAM] unsigned char 
  2589 ;; Registers used:
  2590 ;;		wreg, status,2, status,0
  2591 ;; Tracked objects:
  2592 ;;		On entry : 0/0
  2593 ;;		On exit  : 0/0
  2594 ;;		Unchanged: 0/0
  2595 ;; Data sizes:     COMRAM   BANK0   BANK1   BANK2   BANK3   BANK4   BANK5   BANK6   BANK7   BANK8   BANK9  BANK10  BANK1
      +1  BANK12  BANK13  BANK14  BANK15
  2596 ;;      Params:         8       0       0       0       0       0       0       0       0       0       0       0       
      +0       0       0       0       0
  2597 ;;      Locals:         4       0       0       0       0       0       0       0       0       0       0       0       
      +0       0       0       0       0
  2598 ;;      Temps:          4       0       0       0       0       0       0       0       0       0       0       0       
      +0       0       0       0       0
  2599 ;;      Totals:        16       0       0       0       0       0       0       0       0       0       0       0       
      +0       0       0       0       0
  2600 ;;Total ram usage:       16 bytes
  2601 ;; Hardware stack levels used: 1
  2602 ;; Hardware stack levels required when called: 2
  2603 ;; This function calls:
  2604 ;;		Nothing
  2605 ;; This function is called by:
  2606 ;;		_I2C_Master_Clock_CFG
  2607 ;;		_USART_Baud_Rate_Calculation
  2608 ;; This function uses a non-reentrant model
  2609 ;;
  2610                           
  2611                           	psect	text14
  2612   001024                     __ptext14:
  2613                           	callstack 0
  2614   001024                     ___fladd:
  2615                           	callstack 26
  2616   001024  502C               	movf	(___fladd@b+3)^0,w,c
  2617   001026  0B80               	andlw	128
  2618   001028  6E35               	movwf	___fladd@signs^0,c
  2619   00102A  502C               	movf	(___fladd@b+3)^0,w,c
  2620   00102C  242C               	addwf	(___fladd@b+3)^0,w,c
  2621   00102E  6E37               	movwf	___fladd@bexp^0,c
  2622   001030  AE2B               	btfss	(___fladd@b+2)^0,7,c
  2623   001032  EF1D  F008         	goto	u4041
  2624   001036  EF1F  F008         	goto	u4040
  2625   00103A                     u4041:
  2626   00103A  EF20  F008         	goto	l5261
  2627   00103E                     u4040:
  2628   00103E  8037               	bsf	___fladd@bexp^0,0,c
  2629   001040                     l5261:
  2630   001040  5037               	movf	___fladd@bexp^0,w,c
  2631   001042  B4D8               	btfsc	status,2,c
  2632   001044  EF26  F008         	goto	u4051
  2633   001048  EF28  F008         	goto	u4050
  2634   00104C                     u4051:
  2635   00104C  EF3D  F008         	goto	l5271
  2636   001050                     u4050:
  2637   001050  2837               	incf	___fladd@bexp^0,w,c
  2638   001052  A4D8               	btfss	status,2,c
  2639   001054  EF2E  F008         	goto	u4061
  2640   001058  EF30  F008         	goto	u4060
  2641   00105C                     u4061:
  2642   00105C  EF38  F008         	goto	l5267
  2643   001060                     u4060:
  2644   001060  0E00               	movlw	0
  2645   001062  6E29               	movwf	___fladd@b^0,c
  2646   001064  0E00               	movlw	0
  2647   001066  6E2A               	movwf	(___fladd@b+1)^0,c
  2648   001068  0E00               	movlw	0
  2649   00106A  6E2B               	movwf	(___fladd@b+2)^0,c
  2650   00106C  0E00               	movlw	0
  2651   00106E  6E2C               	movwf	(___fladd@b+3)^0,c
  2652   001070                     l5267:
  2653   001070  8E2B               	bsf	(___fladd@b+2)^0,7,c
  2654   001072  0E00               	movlw	0
  2655   001074  6E2C               	movwf	(___fladd@b+3)^0,c
  2656   001076  EF45  F008         	goto	l5273
  2657   00107A                     l5271:
  2658   00107A  0E00               	movlw	0
  2659   00107C  6E29               	movwf	___fladd@b^0,c
  2660   00107E  0E00               	movlw	0
  2661   001080  6E2A               	movwf	(___fladd@b+1)^0,c
  2662   001082  0E00               	movlw	0
  2663   001084  6E2B               	movwf	(___fladd@b+2)^0,c
  2664   001086  0E00               	movlw	0
  2665   001088  6E2C               	movwf	(___fladd@b+3)^0,c
  2666   00108A                     l5273:
  2667   00108A  5030               	movf	(___fladd@a+3)^0,w,c
  2668   00108C  0B80               	andlw	128
  2669   00108E  6E36               	movwf	___fladd@aexp^0,c
  2670   001090  5035               	movf	___fladd@signs^0,w,c
  2671   001092  1836               	xorwf	___fladd@aexp^0,w,c
  2672   001094  B4D8               	btfsc	status,2,c
  2673   001096  EF4F  F008         	goto	u4071
  2674   00109A  EF51  F008         	goto	u4070
  2675   00109E                     u4071:
  2676   00109E  EF52  F008         	goto	l5279
  2677   0010A2                     u4070:
  2678   0010A2  8C35               	bsf	___fladd@signs^0,6,c
  2679   0010A4                     l5279:
  2680   0010A4  5030               	movf	(___fladd@a+3)^0,w,c
  2681   0010A6  2430               	addwf	(___fladd@a+3)^0,w,c
  2682   0010A8  6E36               	movwf	___fladd@aexp^0,c
  2683   0010AA  AE2F               	btfss	(___fladd@a+2)^0,7,c
  2684   0010AC  EF5A  F008         	goto	u4081
  2685   0010B0  EF5C  F008         	goto	u4080
  2686   0010B4                     u4081:
  2687   0010B4  EF5D  F008         	goto	l5285
  2688   0010B8                     u4080:
  2689   0010B8  8036               	bsf	___fladd@aexp^0,0,c
  2690   0010BA                     l5285:
  2691   0010BA  5036               	movf	___fladd@aexp^0,w,c
  2692   0010BC  B4D8               	btfsc	status,2,c
  2693   0010BE  EF63  F008         	goto	u4091
  2694   0010C2  EF65  F008         	goto	u4090
  2695   0010C6                     u4091:
  2696   0010C6  EF7A  F008         	goto	l5295
  2697   0010CA                     u4090:
  2698   0010CA  2836               	incf	___fladd@aexp^0,w,c
  2699   0010CC  A4D8               	btfss	status,2,c
  2700   0010CE  EF6B  F008         	goto	u4101
  2701   0010D2  EF6D  F008         	goto	u4100
  2702   0010D6                     u4101:
  2703   0010D6  EF75  F008         	goto	l5291
  2704   0010DA                     u4100:
  2705   0010DA  0E00               	movlw	0
  2706   0010DC  6E2D               	movwf	___fladd@a^0,c
  2707   0010DE  0E00               	movlw	0
  2708   0010E0  6E2E               	movwf	(___fladd@a+1)^0,c
  2709   0010E2  0E00               	movlw	0
  2710   0010E4  6E2F               	movwf	(___fladd@a+2)^0,c
  2711   0010E6  0E00               	movlw	0
  2712   0010E8  6E30               	movwf	(___fladd@a+3)^0,c
  2713   0010EA                     l5291:
  2714   0010EA  8E2F               	bsf	(___fladd@a+2)^0,7,c
  2715   0010EC  0E00               	movlw	0
  2716   0010EE  6E30               	movwf	(___fladd@a+3)^0,c
  2717   0010F0  EF82  F008         	goto	l5297
  2718   0010F4                     l5295:
  2719   0010F4  0E00               	movlw	0
  2720   0010F6  6E2D               	movwf	___fladd@a^0,c
  2721   0010F8  0E00               	movlw	0
  2722   0010FA  6E2E               	movwf	(___fladd@a+1)^0,c
  2723   0010FC  0E00               	movlw	0
  2724   0010FE  6E2F               	movwf	(___fladd@a+2)^0,c
  2725   001100  0E00               	movlw	0
  2726   001102  6E30               	movwf	(___fladd@a+3)^0,c
  2727   001104                     l5297:
  2728   001104  5037               	movf	___fladd@bexp^0,w,c
  2729   001106  5C36               	subwf	___fladd@aexp^0,w,c
  2730   001108  B0D8               	btfsc	status,0,c
  2731   00110A  EF89  F008         	goto	u4111
  2732   00110E  EF8B  F008         	goto	u4110
  2733   001112                     u4111:
  2734   001112  EFB2  F008         	goto	l5333
  2735   001116                     u4110:
  2736   001116  AC35               	btfss	___fladd@signs^0,6,c
  2737   001118  EF90  F008         	goto	u4121
  2738   00111C  EF92  F008         	goto	u4120
  2739   001120                     u4121:
  2740   001120  EF94  F008         	goto	l5303
  2741   001124                     u4120:
  2742   001124  0E80               	movlw	128
  2743   001126  1A35               	xorwf	___fladd@signs^0,f,c
  2744   001128                     l5303:
  2745   001128  C037  F038         	movff	___fladd@bexp,___fladd@grs
  2746   00112C  C036  F037         	movff	___fladd@aexp,___fladd@bexp
  2747   001130  C038  F036         	movff	___fladd@grs,___fladd@aexp
  2748   001134  C029  F038         	movff	___fladd@b,___fladd@grs
  2749   001138  C02D  F029         	movff	___fladd@a,___fladd@b
  2750   00113C  C038  F02D         	movff	___fladd@grs,___fladd@a
  2751   001140  C02A  F038         	movff	___fladd@b+1,___fladd@grs
  2752   001144  C02E  F02A         	movff	___fladd@a+1,___fladd@b+1
  2753   001148  C038  F02E         	movff	___fladd@grs,___fladd@a+1
  2754   00114C  C02B  F038         	movff	___fladd@b+2,___fladd@grs
  2755   001150  C02F  F02B         	movff	___fladd@a+2,___fladd@b+2
  2756   001154  C038  F02F         	movff	___fladd@grs,___fladd@a+2
  2757   001158  C02C  F038         	movff	___fladd@b+3,___fladd@grs
  2758   00115C  C030  F02C         	movff	___fladd@a+3,___fladd@b+3
  2759   001160  C038  F030         	movff	___fladd@grs,___fladd@a+3
  2760   001164                     l5333:
  2761   001164  0E00               	movlw	0
  2762   001166  6E38               	movwf	___fladd@grs^0,c
  2763   001168  5037               	movf	___fladd@bexp^0,w,c
  2764   00116A  C036  F031         	movff	___fladd@aexp,??___fladd
  2765   00116E  6A32               	clrf	(??___fladd+1)^0,c
  2766   001170  5E31               	subwf	??___fladd^0,f,c
  2767   001172  0E00               	movlw	0
  2768   001174  5A32               	subwfb	(??___fladd+1)^0,f,c
  2769   001176  BE32               	btfsc	(??___fladd+1)^0,7,c
  2770   001178  EFC7  F008         	goto	u4131
  2771   00117C  5032               	movf	(??___fladd+1)^0,w,c
  2772   00117E  E109               	bnz	u4130
  2773   001180  0E1A               	movlw	26
  2774   001182  5C31               	subwf	??___fladd^0,w,c
  2775   001184  A0D8               	btfss	status,0,c
  2776   001186  EFC7  F008         	goto	u4131
  2777   00118A  EFC9  F008         	goto	u4130
  2778   00118E                     u4131:
  2779   00118E  EF00  F009         	goto	l2156
  2780   001192                     u4130:
  2781   001192  5029               	movf	___fladd@b^0,w,c
  2782   001194  102A               	iorwf	(___fladd@b+1)^0,w,c
  2783   001196  102B               	iorwf	(___fladd@b+2)^0,w,c
  2784   001198  102C               	iorwf	(___fladd@b+3)^0,w,c
  2785   00119A  A4D8               	btfss	status,2,c
  2786   00119C  EFD2  F008         	goto	u4141
  2787   0011A0  EFD5  F008         	goto	u4140
  2788   0011A4                     u4141:
  2789   0011A4  0E01               	movlw	1
  2790   0011A6  EFD6  F008         	goto	u4150
  2791   0011AA                     u4140:
  2792   0011AA  0E00               	movlw	0
  2793   0011AC                     u4150:
  2794   0011AC  6E38               	movwf	___fladd@grs^0,c
  2795   0011AE  0E00               	movlw	0
  2796   0011B0  6E29               	movwf	___fladd@b^0,c
  2797   0011B2  0E00               	movlw	0
  2798   0011B4  6E2A               	movwf	(___fladd@b+1)^0,c
  2799   0011B6  0E00               	movlw	0
  2800   0011B8  6E2B               	movwf	(___fladd@b+2)^0,c
  2801   0011BA  0E00               	movlw	0
  2802   0011BC  6E2C               	movwf	(___fladd@b+3)^0,c
  2803   0011BE  C036  F037         	movff	___fladd@aexp,___fladd@bexp
  2804   0011C2  EF09  F009         	goto	l2155
  2805   0011C6                     l2157:
  2806   0011C6  A038               	btfss	___fladd@grs^0,0,c
  2807   0011C8  EFE8  F008         	goto	u4161
  2808   0011CC  EFEA  F008         	goto	u4160
  2809   0011D0                     u4161:
  2810   0011D0  EFF0  F008         	goto	l5345
  2811   0011D4                     u4160:
  2812   0011D4  90D8               	bcf	status,0,c
  2813   0011D6  3038               	rrcf	___fladd@grs^0,w,c
  2814   0011D8  0901               	iorlw	1
  2815   0011DA  6E38               	movwf	___fladd@grs^0,c
  2816   0011DC  EFF2  F008         	goto	l5347
  2817   0011E0                     l5345:
  2818   0011E0  90D8               	bcf	status,0,c
  2819   0011E2  3238               	rrcf	___fladd@grs^0,f,c
  2820   0011E4                     l5347:
  2821   0011E4  A029               	btfss	___fladd@b^0,0,c
  2822   0011E6  EFF7  F008         	goto	u4171
  2823   0011EA  EFF9  F008         	goto	u4170
  2824   0011EE                     u4171:
  2825   0011EE  EFFA  F008         	goto	l5351
  2826   0011F2                     u4170:
  2827   0011F2  8E38               	bsf	___fladd@grs^0,7,c
  2828   0011F4                     l5351:
  2829   0011F4  342C               	rlcf	(___fladd@b+3)^0,w,c
  2830   0011F6  322C               	rrcf	(___fladd@b+3)^0,f,c
  2831   0011F8  322B               	rrcf	(___fladd@b+2)^0,f,c
  2832   0011FA  322A               	rrcf	(___fladd@b+1)^0,f,c
  2833   0011FC  3229               	rrcf	___fladd@b^0,f,c
  2834   0011FE  2A37               	incf	___fladd@bexp^0,f,c
  2835   001200                     l2156:
  2836   001200  5036               	movf	___fladd@aexp^0,w,c
  2837   001202  5C37               	subwf	___fladd@bexp^0,w,c
  2838   001204  A0D8               	btfss	status,0,c
  2839   001206  EF07  F009         	goto	u4181
  2840   00120A  EF09  F009         	goto	u4180
  2841   00120E                     u4181:
  2842   00120E  EFE3  F008         	goto	l2157
  2843   001212                     u4180:
  2844   001212                     l2155:
  2845   001212  BC35               	btfsc	___fladd@signs^0,6,c
  2846   001214  EF0E  F009         	goto	u4191
  2847   001218  EF10  F009         	goto	u4190
  2848   00121C                     u4191:
  2849   00121C  EF50  F009         	goto	l5379
  2850   001220                     u4190:
  2851   001220  5037               	movf	___fladd@bexp^0,w,c
  2852   001222  A4D8               	btfss	status,2,c
  2853   001224  EF16  F009         	goto	u4201
  2854   001228  EF18  F009         	goto	u4200
  2855   00122C                     u4201:
  2856   00122C  EF22  F009         	goto	l5361
  2857   001230                     u4200:
  2858   001230  0E00               	movlw	0
  2859   001232  6E29               	movwf	?___fladd^0,c
  2860   001234  0E00               	movlw	0
  2861   001236  6E2A               	movwf	(?___fladd+1)^0,c
  2862   001238  0E00               	movlw	0
  2863   00123A  6E2B               	movwf	(?___fladd+2)^0,c
  2864   00123C  0E00               	movlw	0
  2865   00123E  6E2C               	movwf	(?___fladd+3)^0,c
  2866   001240  EF71  F00A         	goto	l2164
  2867   001244                     l5361:
  2868   001244  502D               	movf	___fladd@a^0,w,c
  2869   001246  2629               	addwf	___fladd@b^0,f,c
  2870   001248  502E               	movf	(___fladd@a+1)^0,w,c
  2871   00124A  222A               	addwfc	(___fladd@b+1)^0,f,c
  2872   00124C  502F               	movf	(___fladd@a+2)^0,w,c
  2873   00124E  222B               	addwfc	(___fladd@b+2)^0,f,c
  2874   001250  5030               	movf	(___fladd@a+3)^0,w,c
  2875   001252  222C               	addwfc	(___fladd@b+3)^0,f,c
  2876   001254  A02C               	btfss	(___fladd@b+3)^0,0,c
  2877   001256  EF2F  F009         	goto	u4211
  2878   00125A  EF31  F009         	goto	u4210
  2879   00125E                     u4211:
  2880   00125E  EFDD  F009         	goto	l5415
  2881   001262                     u4210:
  2882   001262  A038               	btfss	___fladd@grs^0,0,c
  2883   001264  EF36  F009         	goto	u4221
  2884   001268  EF38  F009         	goto	u4220
  2885   00126C                     u4221:
  2886   00126C  EF3E  F009         	goto	l5369
  2887   001270                     u4220:
  2888   001270  90D8               	bcf	status,0,c
  2889   001272  3038               	rrcf	___fladd@grs^0,w,c
  2890   001274  0901               	iorlw	1
  2891   001276  6E38               	movwf	___fladd@grs^0,c
  2892   001278  EF40  F009         	goto	l5371
  2893   00127C                     l5369:
  2894   00127C  90D8               	bcf	status,0,c
  2895   00127E  3238               	rrcf	___fladd@grs^0,f,c
  2896   001280                     l5371:
  2897   001280  A029               	btfss	___fladd@b^0,0,c
  2898   001282  EF45  F009         	goto	u4231
  2899   001286  EF47  F009         	goto	u4230
  2900   00128A                     u4231:
  2901   00128A  EF48  F009         	goto	l5375
  2902   00128E                     u4230:
  2903   00128E  8E38               	bsf	___fladd@grs^0,7,c
  2904   001290                     l5375:
  2905   001290  342C               	rlcf	(___fladd@b+3)^0,w,c
  2906   001292  322C               	rrcf	(___fladd@b+3)^0,f,c
  2907   001294  322B               	rrcf	(___fladd@b+2)^0,f,c
  2908   001296  322A               	rrcf	(___fladd@b+1)^0,f,c
  2909   001298  3229               	rrcf	___fladd@b^0,f,c
  2910   00129A  2A37               	incf	___fladd@bexp^0,f,c
  2911   00129C  EFDD  F009         	goto	l5415
  2912   0012A0                     l5379:
  2913   0012A0  502D               	movf	___fladd@a^0,w,c
  2914   0012A2  5C29               	subwf	___fladd@b^0,w,c
  2915   0012A4  502E               	movf	(___fladd@a+1)^0,w,c
  2916   0012A6  582A               	subwfb	(___fladd@b+1)^0,w,c
  2917   0012A8  502F               	movf	(___fladd@a+2)^0,w,c
  2918   0012AA  582B               	subwfb	(___fladd@b+2)^0,w,c
  2919   0012AC  502C               	movf	(___fladd@b+3)^0,w,c
  2920   0012AE  0A80               	xorlw	128
  2921   0012B0  6E31               	movwf	??___fladd^0,c
  2922   0012B2  5030               	movf	(___fladd@a+3)^0,w,c
  2923   0012B4  0A80               	xorlw	128
  2924   0012B6  5831               	subwfb	??___fladd^0,w,c
  2925   0012B8  B0D8               	btfsc	status,0,c
  2926   0012BA  EF61  F009         	goto	u4241
  2927   0012BE  EF63  F009         	goto	u4240
  2928   0012C2                     u4241:
  2929   0012C2  EF8E  F009         	goto	l5389
  2930   0012C6                     u4240:
  2931   0012C6  5029               	movf	___fladd@b^0,w,c
  2932   0012C8  5C2D               	subwf	___fladd@a^0,w,c
  2933   0012CA  6E31               	movwf	??___fladd^0,c
  2934   0012CC  502A               	movf	(___fladd@b+1)^0,w,c
  2935   0012CE  582E               	subwfb	(___fladd@a+1)^0,w,c
  2936   0012D0  6E32               	movwf	(??___fladd+1)^0,c
  2937   0012D2  502B               	movf	(___fladd@b+2)^0,w,c
  2938   0012D4  582F               	subwfb	(___fladd@a+2)^0,w,c
  2939   0012D6  6E33               	movwf	(??___fladd+2)^0,c
  2940   0012D8  502C               	movf	(___fladd@b+3)^0,w,c
  2941   0012DA  5830               	subwfb	(___fladd@a+3)^0,w,c
  2942   0012DC  6E34               	movwf	(??___fladd+3)^0,c
  2943   0012DE  0EFF               	movlw	255
  2944   0012E0  2431               	addwf	??___fladd^0,w,c
  2945   0012E2  6E29               	movwf	___fladd@b^0,c
  2946   0012E4  0EFF               	movlw	255
  2947   0012E6  2032               	addwfc	(??___fladd+1)^0,w,c
  2948   0012E8  6E2A               	movwf	(___fladd@b+1)^0,c
  2949   0012EA  0EFF               	movlw	255
  2950   0012EC  2033               	addwfc	(??___fladd+2)^0,w,c
  2951   0012EE  6E2B               	movwf	(___fladd@b+2)^0,c
  2952   0012F0  0EFF               	movlw	255
  2953   0012F2  2034               	addwfc	(??___fladd+3)^0,w,c
  2954   0012F4  6E2C               	movwf	(___fladd@b+3)^0,c
  2955   0012F6  0E80               	movlw	128
  2956   0012F8  1A35               	xorwf	___fladd@signs^0,f,c
  2957   0012FA  6C38               	negf	___fladd@grs^0,c
  2958   0012FC  5038               	movf	___fladd@grs^0,w,c
  2959   0012FE  A4D8               	btfss	status,2,c
  2960   001300  EF84  F009         	goto	u4251
  2961   001304  EF86  F009         	goto	u4250
  2962   001308                     u4251:
  2963   001308  EF96  F009         	goto	l2172
  2964   00130C                     u4250:
  2965   00130C  0E01               	movlw	1
  2966   00130E  2629               	addwf	___fladd@b^0,f,c
  2967   001310  0E00               	movlw	0
  2968   001312  222A               	addwfc	(___fladd@b+1)^0,f,c
  2969   001314  222B               	addwfc	(___fladd@b+2)^0,f,c
  2970   001316  222C               	addwfc	(___fladd@b+3)^0,f,c
  2971   001318  EF96  F009         	goto	l2172
  2972   00131C                     l5389:
  2973   00131C  502D               	movf	___fladd@a^0,w,c
  2974   00131E  5E29               	subwf	___fladd@b^0,f,c
  2975   001320  502E               	movf	(___fladd@a+1)^0,w,c
  2976   001322  5A2A               	subwfb	(___fladd@b+1)^0,f,c
  2977   001324  502F               	movf	(___fladd@a+2)^0,w,c
  2978   001326  5A2B               	subwfb	(___fladd@b+2)^0,f,c
  2979   001328  5030               	movf	(___fladd@a+3)^0,w,c
  2980   00132A  5A2C               	subwfb	(___fladd@b+3)^0,f,c
  2981   00132C                     l2172:
  2982   00132C  5029               	movf	___fladd@b^0,w,c
  2983   00132E  102A               	iorwf	(___fladd@b+1)^0,w,c
  2984   001330  102B               	iorwf	(___fladd@b+2)^0,w,c
  2985   001332  102C               	iorwf	(___fladd@b+3)^0,w,c
  2986   001334  A4D8               	btfss	status,2,c
  2987   001336  EF9F  F009         	goto	u4261
  2988   00133A  EFA1  F009         	goto	u4260
  2989   00133E                     u4261:
  2990   00133E  EFD6  F009         	goto	l5413
  2991   001342                     u4260:
  2992   001342  5038               	movf	___fladd@grs^0,w,c
  2993   001344  A4D8               	btfss	status,2,c
  2994   001346  EFA7  F009         	goto	u4271
  2995   00134A  EFA9  F009         	goto	u4270
  2996   00134E                     u4271:
  2997   00134E  EFD6  F009         	goto	l5413
  2998   001352                     u4270:
  2999   001352  0E00               	movlw	0
  3000   001354  6E29               	movwf	?___fladd^0,c
  3001   001356  0E00               	movlw	0
  3002   001358  6E2A               	movwf	(?___fladd+1)^0,c
  3003   00135A  0E00               	movlw	0
  3004   00135C  6E2B               	movwf	(?___fladd+2)^0,c
  3005   00135E  0E00               	movlw	0
  3006   001360  6E2C               	movwf	(?___fladd+3)^0,c
  3007   001362  EF71  F00A         	goto	l2164
  3008   001366                     l5397:
  3009   001366  90D8               	bcf	status,0,c
  3010   001368  3629               	rlcf	___fladd@b^0,f,c
  3011   00136A  362A               	rlcf	(___fladd@b+1)^0,f,c
  3012   00136C  362B               	rlcf	(___fladd@b+2)^0,f,c
  3013   00136E  362C               	rlcf	(___fladd@b+3)^0,f,c
  3014   001370  AE38               	btfss	___fladd@grs^0,7,c
  3015   001372  EFBD  F009         	goto	u4281
  3016   001376  EFBF  F009         	goto	u4280
  3017   00137A                     u4281:
  3018   00137A  EFC0  F009         	goto	l5403
  3019   00137E                     u4280:
  3020   00137E  8029               	bsf	___fladd@b^0,0,c
  3021   001380                     l5403:
  3022   001380  A038               	btfss	___fladd@grs^0,0,c
  3023   001382  EFC5  F009         	goto	u4291
  3024   001386  EFC7  F009         	goto	u4290
  3025   00138A                     u4291:
  3026   00138A  EFCB  F009         	goto	l5407
  3027   00138E                     u4290:
  3028   00138E  80D8               	bsf	status,0,c
  3029   001390  3638               	rlcf	___fladd@grs^0,f,c
  3030   001392  EFCD  F009         	goto	l5409
  3031   001396                     l5407:
  3032   001396  90D8               	bcf	status,0,c
  3033   001398  3638               	rlcf	___fladd@grs^0,f,c
  3034   00139A                     l5409:
  3035   00139A  5037               	movf	___fladd@bexp^0,w,c
  3036   00139C  B4D8               	btfsc	status,2,c
  3037   00139E  EFD3  F009         	goto	u4301
  3038   0013A2  EFD5  F009         	goto	u4300
  3039   0013A6                     u4301:
  3040   0013A6  EFD6  F009         	goto	l5413
  3041   0013AA                     u4300:
  3042   0013AA  0637               	decf	___fladd@bexp^0,f,c
  3043   0013AC                     l5413:
  3044   0013AC  AE2B               	btfss	(___fladd@b+2)^0,7,c
  3045   0013AE  EFDB  F009         	goto	u4311
  3046   0013B2  EFDD  F009         	goto	u4310
  3047   0013B6                     u4311:
  3048   0013B6  EFB3  F009         	goto	l5397
  3049   0013BA                     u4310:
  3050   0013BA                     l5415:
  3051   0013BA  0E00               	movlw	0
  3052   0013BC  6E36               	movwf	___fladd@aexp^0,c
  3053   0013BE  AE38               	btfss	___fladd@grs^0,7,c
  3054   0013C0  EFE4  F009         	goto	u4321
  3055   0013C4  EFE6  F009         	goto	u4320
  3056   0013C8                     u4321:
  3057   0013C8  EFFE  F009         	goto	l2181
  3058   0013CC                     u4320:
  3059   0013CC  C038  F031         	movff	___fladd@grs,??___fladd
  3060   0013D0  0E7F               	movlw	127
  3061   0013D2  1631               	andwf	??___fladd^0,f,c
  3062   0013D4  B4D8               	btfsc	status,2,c
  3063   0013D6  EFEF  F009         	goto	u4331
  3064   0013DA  EFF1  F009         	goto	u4330
  3065   0013DE                     u4331:
  3066   0013DE  EFF5  F009         	goto	l2182
  3067   0013E2                     u4330:
  3068   0013E2                     l5421:
  3069   0013E2  0E01               	movlw	1
  3070   0013E4  6E36               	movwf	___fladd@aexp^0,c
  3071   0013E6  EFFE  F009         	goto	l2181
  3072   0013EA                     l2182:
  3073   0013EA  A029               	btfss	___fladd@b^0,0,c
  3074   0013EC  EFFA  F009         	goto	u4341
  3075   0013F0  EFFC  F009         	goto	u4340
  3076   0013F4                     u4341:
  3077   0013F4  EFFE  F009         	goto	l2181
  3078   0013F8                     u4340:
  3079   0013F8  EFF1  F009         	goto	l5421
  3080   0013FC                     l2181:
  3081   0013FC  5036               	movf	___fladd@aexp^0,w,c
  3082   0013FE  B4D8               	btfsc	status,2,c
  3083   001400  EF04  F00A         	goto	u4351
  3084   001404  EF06  F00A         	goto	u4350
  3085   001408                     u4351:
  3086   001408  EF31  F00A         	goto	l5433
  3087   00140C                     u4350:
  3088   00140C  0E01               	movlw	1
  3089   00140E  2629               	addwf	___fladd@b^0,f,c
  3090   001410  0E00               	movlw	0
  3091   001412  222A               	addwfc	(___fladd@b+1)^0,f,c
  3092   001414  222B               	addwfc	(___fladd@b+2)^0,f,c
  3093   001416  222C               	addwfc	(___fladd@b+3)^0,f,c
  3094   001418  A02C               	btfss	(___fladd@b+3)^0,0,c
  3095   00141A  EF11  F00A         	goto	u4361
  3096   00141E  EF13  F00A         	goto	u4360
  3097   001422                     u4361:
  3098   001422  EF31  F00A         	goto	l5433
  3099   001426                     u4360:
  3100   001426  C029  F031         	movff	___fladd@b,??___fladd
  3101   00142A  C02A  F032         	movff	___fladd@b+1,??___fladd+1
  3102   00142E  C02B  F033         	movff	___fladd@b+2,??___fladd+2
  3103   001432  C02C  F034         	movff	___fladd@b+3,??___fladd+3
  3104   001436  3434               	rlcf	(??___fladd+3)^0,w,c
  3105   001438  3234               	rrcf	(??___fladd+3)^0,f,c
  3106   00143A  3233               	rrcf	(??___fladd+2)^0,f,c
  3107   00143C  3232               	rrcf	(??___fladd+1)^0,f,c
  3108   00143E  3231               	rrcf	??___fladd^0,f,c
  3109   001440  C031  F029         	movff	??___fladd,___fladd@b
  3110   001444  C032  F02A         	movff	??___fladd+1,___fladd@b+1
  3111   001448  C033  F02B         	movff	??___fladd+2,___fladd@b+2
  3112   00144C  C034  F02C         	movff	??___fladd+3,___fladd@b+3
  3113   001450  2837               	incf	___fladd@bexp^0,w,c
  3114   001452  B4D8               	btfsc	status,2,c
  3115   001454  EF2E  F00A         	goto	u4371
  3116   001458  EF30  F00A         	goto	u4370
  3117   00145C                     u4371:
  3118   00145C  EF31  F00A         	goto	l5433
  3119   001460                     u4370:
  3120   001460  2A37               	incf	___fladd@bexp^0,f,c
  3121   001462                     l5433:
  3122   001462  2837               	incf	___fladd@bexp^0,w,c
  3123   001464  B4D8               	btfsc	status,2,c
  3124   001466  EF37  F00A         	goto	u4381
  3125   00146A  EF39  F00A         	goto	u4380
  3126   00146E                     u4381:
  3127   00146E  EF41  F00A         	goto	l5437
  3128   001472                     u4380:
  3129   001472  5037               	movf	___fladd@bexp^0,w,c
  3130   001474  A4D8               	btfss	status,2,c
  3131   001476  EF3F  F00A         	goto	u4391
  3132   00147A  EF41  F00A         	goto	u4390
  3133   00147E                     u4391:
  3134   00147E  EF53  F00A         	goto	l5441
  3135   001482                     u4390:
  3136   001482                     l5437:
  3137   001482  0E00               	movlw	0
  3138   001484  6E29               	movwf	___fladd@b^0,c
  3139   001486  0E00               	movlw	0
  3140   001488  6E2A               	movwf	(___fladd@b+1)^0,c
  3141   00148A  0E00               	movlw	0
  3142   00148C  6E2B               	movwf	(___fladd@b+2)^0,c
  3143   00148E  0E00               	movlw	0
  3144   001490  6E2C               	movwf	(___fladd@b+3)^0,c
  3145   001492  5037               	movf	___fladd@bexp^0,w,c
  3146   001494  A4D8               	btfss	status,2,c
  3147   001496  EF4F  F00A         	goto	u4401
  3148   00149A  EF51  F00A         	goto	u4400
  3149   00149E                     u4401:
  3150   00149E  EF53  F00A         	goto	l5441
  3151   0014A2                     u4400:
  3152   0014A2  0E00               	movlw	0
  3153   0014A4  6E35               	movwf	___fladd@signs^0,c
  3154   0014A6                     l5441:
  3155   0014A6  A037               	btfss	___fladd@bexp^0,0,c
  3156   0014A8  EF58  F00A         	goto	u4411
  3157   0014AC  EF5A  F00A         	goto	u4410
  3158   0014B0                     u4411:
  3159   0014B0  EF5D  F00A         	goto	l5445
  3160   0014B4                     u4410:
  3161   0014B4  8E2B               	bsf	(___fladd@b+2)^0,7,c
  3162   0014B6  EF5E  F00A         	goto	l5447
  3163   0014BA                     l5445:
  3164   0014BA  9E2B               	bcf	(___fladd@b+2)^0,7,c
  3165   0014BC                     l5447:
  3166   0014BC  90D8               	bcf	status,0,c
  3167   0014BE  3037               	rrcf	___fladd@bexp^0,w,c
  3168   0014C0  6E2C               	movwf	(___fladd@b+3)^0,c
  3169   0014C2  AE35               	btfss	___fladd@signs^0,7,c
  3170   0014C4  EF66  F00A         	goto	u4421
  3171   0014C8  EF68  F00A         	goto	u4420
  3172   0014CC                     u4421:
  3173   0014CC  EF69  F00A         	goto	l5453
  3174   0014D0                     u4420:
  3175   0014D0  8E2C               	bsf	(___fladd@b+3)^0,7,c
  3176   0014D2                     l5453:
  3177   0014D2  C029  F029         	movff	___fladd@b,?___fladd
  3178   0014D6  C02A  F02A         	movff	___fladd@b+1,?___fladd+1
  3179   0014DA  C02B  F02B         	movff	___fladd@b+2,?___fladd+2
  3180   0014DE  C02C  F02C         	movff	___fladd@b+3,?___fladd+3
  3181   0014E2                     l2164:
  3182   0014E2  0012               	return		;funcret
  3183   0014E4                     __end_of___fladd:
  3184                           	callstack 0
  3185                           
  3186 ;; *************** function _InterruptManagerLow *****************
  3187 ;; Defined at:
  3188 ;;		line 28 in file "MCAL_Layer/MCAL_Interrupts/MCAL_Interrupt_Manager.c"
  3189 ;; Parameters:    Size  Location     Type
  3190 ;;		None
  3191 ;; Auto vars:     Size  Location     Type
  3192 ;;		None
  3193 ;; Return value:  Size  Location     Type
  3194 ;;                  1    wreg      void 
  3195 ;; Registers used:
  3196 ;;		wreg, status,2, status,0, cstack
  3197 ;; Tracked objects:
  3198 ;;		On entry : 0/0
  3199 ;;		On exit  : 0/0
  3200 ;;		Unchanged: 0/0
  3201 ;; Data sizes:     COMRAM   BANK0   BANK1   BANK2   BANK3   BANK4   BANK5   BANK6   BANK7   BANK8   BANK9  BANK10  BANK1
      +1  BANK12  BANK13  BANK14  BANK15
  3202 ;;      Params:         0       0       0       0       0       0       0       0       0       0       0       0       
      +0       0       0       0       0
  3203 ;;      Locals:         0       0       0       0       0       0       0       0       0       0       0       0       
      +0       0       0       0       0
  3204 ;;      Temps:          0       0       0       0       0       0       0       0       0       0       0       0       
      +0       0       0       0       0
  3205 ;;      Totals:         0       0       0       0       0       0       0       0       0       0       0       0       
      +0       0       0       0       0
  3206 ;;Total ram usage:        0 bytes
  3207 ;; Hardware stack levels used: 1
  3208 ;; Hardware stack levels required when called: 1
  3209 ;; This function calls:
  3210 ;;		_ADC_ISR
  3211 ;;		_CCP1_ISR
  3212 ;;		_CCP2_ISR
  3213 ;;		_I2C_BUS_ISR
  3214 ;;		_I2C_ISR
  3215 ;;		_INT0_ISR
  3216 ;;		_INT1_ISR
  3217 ;;		_INT2_ISR
  3218 ;;		_RB4_ISR
  3219 ;;		_RB5_ISR
  3220 ;;		_RB6_ISR
  3221 ;;		_RB7_ISR
  3222 ;;		_TMR0_ISR
  3223 ;;		_TMR1_ISR
  3224 ;;		_TMR2_ISR
  3225 ;;		_TMR3_ISR
  3226 ;;		_USART_RX_ISR
  3227 ;;		_USART_TX_ISR
  3228 ;; This function is called by:
  3229 ;;		Interrupt level 2
  3230 ;; This function uses a non-reentrant model
  3231 ;;
  3232                           
  3233                           	psect	intcode
  3234   000008                     __pintcode:
  3235                           	callstack 0
  3236   000008                     _InterruptManagerLow:
  3237                           	callstack 26
  3238                           
  3239                           ;incstack = 0
  3240   000008  827D               	bsf	int$flags,1,c	;set compiler interrupt flag (level 2)
  3241   00000A  ED72  F00A         	call	int_func,f	;refresh shadow registers
  3242                           
  3243                           	psect	intcode_body
  3244   0014E4                     __pintcode_body:
  3245                           	callstack 26
  3246   0014E4                     int_func:
  3247                           	callstack 26
  3248   0014E4  0006               	pop		; remove dummy address from shadow register refresh
  3249   0014E6                     
  3250                           ;MCAL_Layer/MCAL_Interrupts/MCAL_Interrupt_Manager.c: 29:     if((1 == PIE1bits.SSPIE) &
      +                          & (1 == PIR1bits.SSPIF)){
  3251   0014E6  A69D               	btfss	157,3,c	;volatile
  3252   0014E8  EF78  F00A         	goto	i2u601_41
  3253   0014EC  EF7A  F00A         	goto	i2u601_40
  3254   0014F0                     i2u601_41:
  3255   0014F0  EF83  F00A         	goto	i2l963
  3256   0014F4                     i2u601_40:
  3257   0014F4  A69E               	btfss	158,3,c	;volatile
  3258   0014F6  EF7F  F00A         	goto	i2u602_41
  3259   0014FA  EF81  F00A         	goto	i2u602_40
  3260   0014FE                     i2u602_41:
  3261   0014FE  EF83  F00A         	goto	i2l963
  3262   001502                     i2u602_40:
  3263   001502                     
  3264                           ;MCAL_Layer/MCAL_Interrupts/MCAL_Interrupt_Manager.c: 30:         I2C_ISR();
  3265   001502  EC16  F012         	call	_I2C_ISR	;wreg free
  3266   001506                     i2l963:
  3267                           
  3268                           ;MCAL_Layer/MCAL_Interrupts/MCAL_Interrupt_Manager.c: 33:     if((1 == PIE2bits.BCLIE) &
      +                          & (1 == PIR2bits.BCLIF)){
  3269   001506  A6A0               	btfss	160,3,c	;volatile
  3270   001508  EF88  F00A         	goto	i2u603_41
  3271   00150C  EF8A  F00A         	goto	i2u603_40
  3272   001510                     i2u603_41:
  3273   001510  EF93  F00A         	goto	i2l965
  3274   001514                     i2u603_40:
  3275   001514  A6A1               	btfss	161,3,c	;volatile
  3276   001516  EF8F  F00A         	goto	i2u604_41
  3277   00151A  EF91  F00A         	goto	i2u604_40
  3278   00151E                     i2u604_41:
  3279   00151E  EF93  F00A         	goto	i2l965
  3280   001522                     i2u604_40:
  3281   001522                     
  3282                           ;MCAL_Layer/MCAL_Interrupts/MCAL_Interrupt_Manager.c: 34:         I2C_BUS_ISR();
  3283   001522  EC17  F012         	call	_I2C_BUS_ISR	;wreg free
  3284   001526                     i2l965:
  3285                           
  3286                           ;MCAL_Layer/MCAL_Interrupts/MCAL_Interrupt_Manager.c: 37:     if((1 == PIE1bits.RCIE) &&
      +                           (1 == PIR1bits.RCIF)){
  3287   001526  AA9D               	btfss	157,5,c	;volatile
  3288   001528  EF98  F00A         	goto	i2u605_41
  3289   00152C  EF9A  F00A         	goto	i2u605_40
  3290   001530                     i2u605_41:
  3291   001530  EFA3  F00A         	goto	i2l967
  3292   001534                     i2u605_40:
  3293   001534  AA9E               	btfss	158,5,c	;volatile
  3294   001536  EF9F  F00A         	goto	i2u606_41
  3295   00153A  EFA1  F00A         	goto	i2u606_40
  3296   00153E                     i2u606_41:
  3297   00153E  EFA3  F00A         	goto	i2l967
  3298   001542                     i2u606_40:
  3299   001542                     
  3300                           ;MCAL_Layer/MCAL_Interrupts/MCAL_Interrupt_Manager.c: 38:         USART_RX_ISR();
  3301   001542  EC15  F012         	call	_USART_RX_ISR	;wreg free
  3302   001546                     i2l967:
  3303                           
  3304                           ;MCAL_Layer/MCAL_Interrupts/MCAL_Interrupt_Manager.c: 41:     if((1 == PIE1bits.TXIE) &&
      +                           (1 == PIR1bits.TXIF)){
  3305   001546  A89D               	btfss	157,4,c	;volatile
  3306   001548  EFA8  F00A         	goto	i2u607_41
  3307   00154C  EFAA  F00A         	goto	i2u607_40
  3308   001550                     i2u607_41:
  3309   001550  EFB3  F00A         	goto	i2l969
  3310   001554                     i2u607_40:
  3311   001554  A89E               	btfss	158,4,c	;volatile
  3312   001556  EFAF  F00A         	goto	i2u608_41
  3313   00155A  EFB1  F00A         	goto	i2u608_40
  3314   00155E                     i2u608_41:
  3315   00155E  EFB3  F00A         	goto	i2l969
  3316   001562                     i2u608_40:
  3317   001562                     
  3318                           ;MCAL_Layer/MCAL_Interrupts/MCAL_Interrupt_Manager.c: 42:         USART_TX_ISR();
  3319   001562  EC06  F012         	call	_USART_TX_ISR	;wreg free
  3320   001566                     i2l969:
  3321                           
  3322                           ;MCAL_Layer/MCAL_Interrupts/MCAL_Interrupt_Manager.c: 45:     if((1 == PIE2bits.CCP2IE) 
      +                          && (1 == PIR2bits.CCP2IF)){
  3323   001566  A0A0               	btfss	160,0,c	;volatile
  3324   001568  EFB8  F00A         	goto	i2u609_41
  3325   00156C  EFBA  F00A         	goto	i2u609_40
  3326   001570                     i2u609_41:
  3327   001570  EFC3  F00A         	goto	i2l971
  3328   001574                     i2u609_40:
  3329   001574  A0A1               	btfss	161,0,c	;volatile
  3330   001576  EFBF  F00A         	goto	i2u610_41
  3331   00157A  EFC1  F00A         	goto	i2u610_40
  3332   00157E                     i2u610_41:
  3333   00157E  EFC3  F00A         	goto	i2l971
  3334   001582                     i2u610_40:
  3335   001582                     
  3336                           ;MCAL_Layer/MCAL_Interrupts/MCAL_Interrupt_Manager.c: 46:         CCP2_ISR();
  3337   001582  EC0E  F012         	call	_CCP2_ISR	;wreg free
  3338   001586                     i2l971:
  3339                           
  3340                           ;MCAL_Layer/MCAL_Interrupts/MCAL_Interrupt_Manager.c: 49:     if((1 == PIE1bits.CCP1IE) 
      +                          && (1 == PIR1bits.CCP1IF)){
  3341   001586  A49D               	btfss	157,2,c	;volatile
  3342   001588  EFC8  F00A         	goto	i2u611_41
  3343   00158C  EFCA  F00A         	goto	i2u611_40
  3344   001590                     i2u611_41:
  3345   001590  EFD3  F00A         	goto	i2l973
  3346   001594                     i2u611_40:
  3347   001594  A49E               	btfss	158,2,c	;volatile
  3348   001596  EFCF  F00A         	goto	i2u612_41
  3349   00159A  EFD1  F00A         	goto	i2u612_40
  3350   00159E                     i2u612_41:
  3351   00159E  EFD3  F00A         	goto	i2l973
  3352   0015A2                     i2u612_40:
  3353   0015A2                     
  3354                           ;MCAL_Layer/MCAL_Interrupts/MCAL_Interrupt_Manager.c: 50:         CCP1_ISR();
  3355   0015A2  EC10  F012         	call	_CCP1_ISR	;wreg free
  3356   0015A6                     i2l973:
  3357                           
  3358                           ;MCAL_Layer/MCAL_Interrupts/MCAL_Interrupt_Manager.c: 53:     if((1 == PIE1bits.TMR2IE) 
      +                          && (1 == PIR1bits.TMR2IF)){
  3359   0015A6  A29D               	btfss	157,1,c	;volatile
  3360   0015A8  EFD8  F00A         	goto	i2u613_41
  3361   0015AC  EFDA  F00A         	goto	i2u613_40
  3362   0015B0                     i2u613_41:
  3363   0015B0  EFE3  F00A         	goto	i2l975
  3364   0015B4                     i2u613_40:
  3365   0015B4  A29E               	btfss	158,1,c	;volatile
  3366   0015B6  EFDF  F00A         	goto	i2u614_41
  3367   0015BA  EFE1  F00A         	goto	i2u614_40
  3368   0015BE                     i2u614_41:
  3369   0015BE  EFE3  F00A         	goto	i2l975
  3370   0015C2                     i2u614_40:
  3371   0015C2                     
  3372                           ;MCAL_Layer/MCAL_Interrupts/MCAL_Interrupt_Manager.c: 54:         TMR2_ISR();
  3373   0015C2  ECFA  F011         	call	_TMR2_ISR	;wreg free
  3374   0015C6                     i2l975:
  3375                           
  3376                           ;MCAL_Layer/MCAL_Interrupts/MCAL_Interrupt_Manager.c: 57:     if((1 == PIE2bits.TMR3IE) 
      +                          && (1 == PIR2bits.TMR3IF)){
  3377   0015C6  A2A0               	btfss	160,1,c	;volatile
  3378   0015C8  EFE8  F00A         	goto	i2u615_41
  3379   0015CC  EFEA  F00A         	goto	i2u615_40
  3380   0015D0                     i2u615_41:
  3381   0015D0  EFF3  F00A         	goto	i2l977
  3382   0015D4                     i2u615_40:
  3383   0015D4  A2A1               	btfss	161,1,c	;volatile
  3384   0015D6  EFEF  F00A         	goto	i2u616_41
  3385   0015DA  EFF1  F00A         	goto	i2u616_40
  3386   0015DE                     i2u616_41:
  3387   0015DE  EFF3  F00A         	goto	i2l977
  3388   0015E2                     i2u616_40:
  3389   0015E2                     
  3390                           ;MCAL_Layer/MCAL_Interrupts/MCAL_Interrupt_Manager.c: 58:         TMR3_ISR();
  3391   0015E2  ECE8  F011         	call	_TMR3_ISR	;wreg free
  3392   0015E6                     i2l977:
  3393                           
  3394                           ;MCAL_Layer/MCAL_Interrupts/MCAL_Interrupt_Manager.c: 61:     if((1 == PIE1bits.TMR1IE) 
      +                          && (1 == PIR1bits.TMR1IF)){
  3395   0015E6  A09D               	btfss	157,0,c	;volatile
  3396   0015E8  EFF8  F00A         	goto	i2u617_41
  3397   0015EC  EFFA  F00A         	goto	i2u617_40
  3398   0015F0                     i2u617_41:
  3399   0015F0  EF03  F00B         	goto	i2l979
  3400   0015F4                     i2u617_40:
  3401   0015F4  A09E               	btfss	158,0,c	;volatile
  3402   0015F6  EFFF  F00A         	goto	i2u618_41
  3403   0015FA  EF01  F00B         	goto	i2u618_40
  3404   0015FE                     i2u618_41:
  3405   0015FE  EF03  F00B         	goto	i2l979
  3406   001602                     i2u618_40:
  3407   001602                     
  3408                           ;MCAL_Layer/MCAL_Interrupts/MCAL_Interrupt_Manager.c: 62:         TMR1_ISR();
  3409   001602  ECEE  F011         	call	_TMR1_ISR	;wreg free
  3410   001606                     i2l979:
  3411                           
  3412                           ;MCAL_Layer/MCAL_Interrupts/MCAL_Interrupt_Manager.c: 65:     if((1 == INTCONbits.TMR0IE
      +                          ) && (1 == INTCONbits.TMR0IF)){
  3413   001606  AAF2               	btfss	242,5,c	;volatile
  3414   001608  EF08  F00B         	goto	i2u619_41
  3415   00160C  EF0A  F00B         	goto	i2u619_40
  3416   001610                     i2u619_41:
  3417   001610  EF13  F00B         	goto	i2l981
  3418   001614                     i2u619_40:
  3419   001614  A4F2               	btfss	242,2,c	;volatile
  3420   001616  EF0F  F00B         	goto	i2u620_41
  3421   00161A  EF11  F00B         	goto	i2u620_40
  3422   00161E                     i2u620_41:
  3423   00161E  EF13  F00B         	goto	i2l981
  3424   001622                     i2u620_40:
  3425   001622                     
  3426                           ;MCAL_Layer/MCAL_Interrupts/MCAL_Interrupt_Manager.c: 66:         TMR0_ISR();
  3427   001622  ECF4  F011         	call	_TMR0_ISR	;wreg free
  3428   001626                     i2l981:
  3429                           
  3430                           ;MCAL_Layer/MCAL_Interrupts/MCAL_Interrupt_Manager.c: 69:     if((1 == PIE1bits.ADIE) &&
      +                           (1 == PIR1bits.ADIF)){
  3431   001626  AC9D               	btfss	157,6,c	;volatile
  3432   001628  EF18  F00B         	goto	i2u621_41
  3433   00162C  EF1A  F00B         	goto	i2u621_40
  3434   001630                     i2u621_41:
  3435   001630  EF23  F00B         	goto	i2l983
  3436   001634                     i2u621_40:
  3437   001634  AC9E               	btfss	158,6,c	;volatile
  3438   001636  EF1F  F00B         	goto	i2u622_41
  3439   00163A  EF21  F00B         	goto	i2u622_40
  3440   00163E                     i2u622_41:
  3441   00163E  EF23  F00B         	goto	i2l983
  3442   001642                     i2u622_40:
  3443   001642                     
  3444                           ;MCAL_Layer/MCAL_Interrupts/MCAL_Interrupt_Manager.c: 70:         ADC_ISR();
  3445   001642  EC12  F012         	call	_ADC_ISR	;wreg free
  3446   001646                     i2l983:
  3447                           
  3448                           ;MCAL_Layer/MCAL_Interrupts/MCAL_Interrupt_Manager.c: 73:     if((1 == INTCONbits.INT0IE
      +                          ) && (1 == INTCONbits.INT0IF)){
  3449   001646  A8F2               	btfss	242,4,c	;volatile
  3450   001648  EF28  F00B         	goto	i2u623_41
  3451   00164C  EF2A  F00B         	goto	i2u623_40
  3452   001650                     i2u623_41:
  3453   001650  EF33  F00B         	goto	i2l985
  3454   001654                     i2u623_40:
  3455   001654  A2F2               	btfss	242,1,c	;volatile
  3456   001656  EF2F  F00B         	goto	i2u624_41
  3457   00165A  EF31  F00B         	goto	i2u624_40
  3458   00165E                     i2u624_41:
  3459   00165E  EF33  F00B         	goto	i2l985
  3460   001662                     i2u624_40:
  3461   001662                     
  3462                           ;MCAL_Layer/MCAL_Interrupts/MCAL_Interrupt_Manager.c: 74:         INT0_ISR();
  3463   001662  EC0C  F012         	call	_INT0_ISR	;wreg free
  3464   001666                     i2l985:
  3465                           
  3466                           ;MCAL_Layer/MCAL_Interrupts/MCAL_Interrupt_Manager.c: 77:     if((1 == INTCON3bits.INT1I
      +                          E) && (1 == INTCON3bits.INT1IF)){
  3467   001666  A6F0               	btfss	240,3,c	;volatile
  3468   001668  EF38  F00B         	goto	i2u625_41
  3469   00166C  EF3A  F00B         	goto	i2u625_40
  3470   001670                     i2u625_41:
  3471   001670  EF43  F00B         	goto	i2l987
  3472   001674                     i2u625_40:
  3473   001674  A0F0               	btfss	240,0,c	;volatile
  3474   001676  EF3F  F00B         	goto	i2u626_41
  3475   00167A  EF41  F00B         	goto	i2u626_40
  3476   00167E                     i2u626_41:
  3477   00167E  EF43  F00B         	goto	i2l987
  3478   001682                     i2u626_40:
  3479   001682                     
  3480                           ;MCAL_Layer/MCAL_Interrupts/MCAL_Interrupt_Manager.c: 78:         INT1_ISR();
  3481   001682  EC0A  F012         	call	_INT1_ISR	;wreg free
  3482   001686                     i2l987:
  3483                           
  3484                           ;MCAL_Layer/MCAL_Interrupts/MCAL_Interrupt_Manager.c: 81:     if((1 == INTCON3bits.INT2I
      +                          E) && (1 == INTCON3bits.INT2IF)){
  3485   001686  A8F0               	btfss	240,4,c	;volatile
  3486   001688  EF48  F00B         	goto	i2u627_41
  3487   00168C  EF4A  F00B         	goto	i2u627_40
  3488   001690                     i2u627_41:
  3489   001690  EF53  F00B         	goto	i2l989
  3490   001694                     i2u627_40:
  3491   001694  A2F0               	btfss	240,1,c	;volatile
  3492   001696  EF4F  F00B         	goto	i2u628_41
  3493   00169A  EF51  F00B         	goto	i2u628_40
  3494   00169E                     i2u628_41:
  3495   00169E  EF53  F00B         	goto	i2l989
  3496   0016A2                     i2u628_40:
  3497   0016A2                     
  3498                           ;MCAL_Layer/MCAL_Interrupts/MCAL_Interrupt_Manager.c: 82:         INT2_ISR();
  3499   0016A2  EC08  F012         	call	_INT2_ISR	;wreg free
  3500   0016A6                     i2l989:
  3501                           
  3502                           ;MCAL_Layer/MCAL_Interrupts/MCAL_Interrupt_Manager.c: 86:     if((1 == INTCONbits.RBIE) 
      +                          && (1 == INTCONbits.RBIF) && (PORTBbits.RB4 == HIGH) && (1 == RB4_Flag)){
  3503   0016A6  A6F2               	btfss	242,3,c	;volatile
  3504   0016A8  EF58  F00B         	goto	i2u629_41
  3505   0016AC  EF5A  F00B         	goto	i2u629_40
  3506   0016B0                     i2u629_41:
  3507   0016B0  EF75  F00B         	goto	i2l991
  3508   0016B4                     i2u629_40:
  3509   0016B4  A0F2               	btfss	242,0,c	;volatile
  3510   0016B6  EF5F  F00B         	goto	i2u630_41
  3511   0016BA  EF61  F00B         	goto	i2u630_40
  3512   0016BE                     i2u630_41:
  3513   0016BE  EF75  F00B         	goto	i2l991
  3514   0016C2                     i2u630_40:
  3515   0016C2  A881               	btfss	129,4,c	;volatile
  3516   0016C4  EF66  F00B         	goto	i2u631_41
  3517   0016C8  EF68  F00B         	goto	i2u631_40
  3518   0016CC                     i2u631_41:
  3519   0016CC  EF75  F00B         	goto	i2l991
  3520   0016D0                     i2u631_40:
  3521   0016D0  047C               	decf	_RB4_Flag^0,w,c	;volatile
  3522   0016D2  A4D8               	btfss	status,2,c
  3523   0016D4  EF6E  F00B         	goto	i2u632_41
  3524   0016D8  EF70  F00B         	goto	i2u632_40
  3525   0016DC                     i2u632_41:
  3526   0016DC  EF75  F00B         	goto	i2l991
  3527   0016E0                     i2u632_40:
  3528   0016E0                     
  3529                           ;MCAL_Layer/MCAL_Interrupts/MCAL_Interrupt_Manager.c: 87:         RB4_Flag = 0;
  3530   0016E0  0E00               	movlw	0
  3531   0016E2  6E7C               	movwf	_RB4_Flag^0,c	;volatile
  3532   0016E4                     
  3533                           ;MCAL_Layer/MCAL_Interrupts/MCAL_Interrupt_Manager.c: 88:         RB4_ISR(1);
  3534   0016E4  0E01               	movlw	1
  3535   0016E6  ECD0  F011         	call	_RB4_ISR
  3536   0016EA                     i2l991:
  3537                           
  3538                           ;MCAL_Layer/MCAL_Interrupts/MCAL_Interrupt_Manager.c: 91:     if((1 == INTCONbits.RBIE) 
      +                          && (1 == INTCONbits.RBIF) && (PORTBbits.RB4 == LOW) && (0 == RB4_Flag)){
  3539   0016EA  A6F2               	btfss	242,3,c	;volatile
  3540   0016EC  EF7A  F00B         	goto	i2u633_41
  3541   0016F0  EF7C  F00B         	goto	i2u633_40
  3542   0016F4                     i2u633_41:
  3543   0016F4  EF97  F00B         	goto	i2l993
  3544   0016F8                     i2u633_40:
  3545   0016F8  A0F2               	btfss	242,0,c	;volatile
  3546   0016FA  EF81  F00B         	goto	i2u634_41
  3547   0016FE  EF83  F00B         	goto	i2u634_40
  3548   001702                     i2u634_41:
  3549   001702  EF97  F00B         	goto	i2l993
  3550   001706                     i2u634_40:
  3551   001706  B881               	btfsc	129,4,c	;volatile
  3552   001708  EF88  F00B         	goto	i2u635_41
  3553   00170C  EF8A  F00B         	goto	i2u635_40
  3554   001710                     i2u635_41:
  3555   001710  EF97  F00B         	goto	i2l993
  3556   001714                     i2u635_40:
  3557   001714  507C               	movf	_RB4_Flag^0,w,c	;volatile
  3558   001716  A4D8               	btfss	status,2,c
  3559   001718  EF90  F00B         	goto	i2u636_41
  3560   00171C  EF92  F00B         	goto	i2u636_40
  3561   001720                     i2u636_41:
  3562   001720  EF97  F00B         	goto	i2l993
  3563   001724                     i2u636_40:
  3564   001724                     
  3565                           ;MCAL_Layer/MCAL_Interrupts/MCAL_Interrupt_Manager.c: 92:         RB4_Flag = 1;
  3566   001724  0E01               	movlw	1
  3567   001726  6E7C               	movwf	_RB4_Flag^0,c	;volatile
  3568   001728                     
  3569                           ;MCAL_Layer/MCAL_Interrupts/MCAL_Interrupt_Manager.c: 93:         RB4_ISR(0);
  3570   001728  0E00               	movlw	0
  3571   00172A  ECD0  F011         	call	_RB4_ISR
  3572   00172E                     i2l993:
  3573                           
  3574                           ;MCAL_Layer/MCAL_Interrupts/MCAL_Interrupt_Manager.c: 96:     if((1 == INTCONbits.RBIE) 
      +                          && (1 == INTCONbits.RBIF) && (PORTBbits.RB5 == HIGH) && (1 == RB5_Flag)){
  3575   00172E  A6F2               	btfss	242,3,c	;volatile
  3576   001730  EF9C  F00B         	goto	i2u637_41
  3577   001734  EF9E  F00B         	goto	i2u637_40
  3578   001738                     i2u637_41:
  3579   001738  EFB9  F00B         	goto	i2l995
  3580   00173C                     i2u637_40:
  3581   00173C  A0F2               	btfss	242,0,c	;volatile
  3582   00173E  EFA3  F00B         	goto	i2u638_41
  3583   001742  EFA5  F00B         	goto	i2u638_40
  3584   001746                     i2u638_41:
  3585   001746  EFB9  F00B         	goto	i2l995
  3586   00174A                     i2u638_40:
  3587   00174A  AA81               	btfss	129,5,c	;volatile
  3588   00174C  EFAA  F00B         	goto	i2u639_41
  3589   001750  EFAC  F00B         	goto	i2u639_40
  3590   001754                     i2u639_41:
  3591   001754  EFB9  F00B         	goto	i2l995
  3592   001758                     i2u639_40:
  3593   001758  047B               	decf	_RB5_Flag^0,w,c	;volatile
  3594   00175A  A4D8               	btfss	status,2,c
  3595   00175C  EFB2  F00B         	goto	i2u640_41
  3596   001760  EFB4  F00B         	goto	i2u640_40
  3597   001764                     i2u640_41:
  3598   001764  EFB9  F00B         	goto	i2l995
  3599   001768                     i2u640_40:
  3600   001768                     
  3601                           ;MCAL_Layer/MCAL_Interrupts/MCAL_Interrupt_Manager.c: 97:         RB5_Flag = 0;
  3602   001768  0E00               	movlw	0
  3603   00176A  6E7B               	movwf	_RB5_Flag^0,c	;volatile
  3604   00176C                     
  3605                           ;MCAL_Layer/MCAL_Interrupts/MCAL_Interrupt_Manager.c: 98:         RB5_ISR(1);
  3606   00176C  0E01               	movlw	1
  3607   00176E  ECC3  F011         	call	_RB5_ISR
  3608   001772                     i2l995:
  3609                           
  3610                           ;MCAL_Layer/MCAL_Interrupts/MCAL_Interrupt_Manager.c: 101:     if((1 == INTCONbits.RBIE)
      +                           && (1 == INTCONbits.RBIF) && (PORTBbits.RB5 == LOW) && (0 == RB5_Flag)){
  3611   001772  A6F2               	btfss	242,3,c	;volatile
  3612   001774  EFBE  F00B         	goto	i2u641_41
  3613   001778  EFC0  F00B         	goto	i2u641_40
  3614   00177C                     i2u641_41:
  3615   00177C  EFDB  F00B         	goto	i2l997
  3616   001780                     i2u641_40:
  3617   001780  A0F2               	btfss	242,0,c	;volatile
  3618   001782  EFC5  F00B         	goto	i2u642_41
  3619   001786  EFC7  F00B         	goto	i2u642_40
  3620   00178A                     i2u642_41:
  3621   00178A  EFDB  F00B         	goto	i2l997
  3622   00178E                     i2u642_40:
  3623   00178E  BA81               	btfsc	129,5,c	;volatile
  3624   001790  EFCC  F00B         	goto	i2u643_41
  3625   001794  EFCE  F00B         	goto	i2u643_40
  3626   001798                     i2u643_41:
  3627   001798  EFDB  F00B         	goto	i2l997
  3628   00179C                     i2u643_40:
  3629   00179C  507B               	movf	_RB5_Flag^0,w,c	;volatile
  3630   00179E  A4D8               	btfss	status,2,c
  3631   0017A0  EFD4  F00B         	goto	i2u644_41
  3632   0017A4  EFD6  F00B         	goto	i2u644_40
  3633   0017A8                     i2u644_41:
  3634   0017A8  EFDB  F00B         	goto	i2l997
  3635   0017AC                     i2u644_40:
  3636   0017AC                     
  3637                           ;MCAL_Layer/MCAL_Interrupts/MCAL_Interrupt_Manager.c: 102:         RB5_Flag = 1;
  3638   0017AC  0E01               	movlw	1
  3639   0017AE  6E7B               	movwf	_RB5_Flag^0,c	;volatile
  3640   0017B0                     
  3641                           ;MCAL_Layer/MCAL_Interrupts/MCAL_Interrupt_Manager.c: 103:         RB5_ISR(0);
  3642   0017B0  0E00               	movlw	0
  3643   0017B2  ECC3  F011         	call	_RB5_ISR
  3644   0017B6                     i2l997:
  3645                           
  3646                           ;MCAL_Layer/MCAL_Interrupts/MCAL_Interrupt_Manager.c: 106:     if((1 == INTCONbits.RBIE)
      +                           && (1 == INTCONbits.RBIF) && (PORTBbits.RB6 == HIGH) && (1 == RB6_Flag)){
  3647   0017B6  A6F2               	btfss	242,3,c	;volatile
  3648   0017B8  EFE0  F00B         	goto	i2u645_41
  3649   0017BC  EFE2  F00B         	goto	i2u645_40
  3650   0017C0                     i2u645_41:
  3651   0017C0  EFFD  F00B         	goto	i2l999
  3652   0017C4                     i2u645_40:
  3653   0017C4  A0F2               	btfss	242,0,c	;volatile
  3654   0017C6  EFE7  F00B         	goto	i2u646_41
  3655   0017CA  EFE9  F00B         	goto	i2u646_40
  3656   0017CE                     i2u646_41:
  3657   0017CE  EFFD  F00B         	goto	i2l999
  3658   0017D2                     i2u646_40:
  3659   0017D2  AC81               	btfss	129,6,c	;volatile
  3660   0017D4  EFEE  F00B         	goto	i2u647_41
  3661   0017D8  EFF0  F00B         	goto	i2u647_40
  3662   0017DC                     i2u647_41:
  3663   0017DC  EFFD  F00B         	goto	i2l999
  3664   0017E0                     i2u647_40:
  3665   0017E0  047A               	decf	_RB6_Flag^0,w,c	;volatile
  3666   0017E2  A4D8               	btfss	status,2,c
  3667   0017E4  EFF6  F00B         	goto	i2u648_41
  3668   0017E8  EFF8  F00B         	goto	i2u648_40
  3669   0017EC                     i2u648_41:
  3670   0017EC  EFFD  F00B         	goto	i2l999
  3671   0017F0                     i2u648_40:
  3672   0017F0                     
  3673                           ;MCAL_Layer/MCAL_Interrupts/MCAL_Interrupt_Manager.c: 107:         RB6_Flag = 0;
  3674   0017F0  0E00               	movlw	0
  3675   0017F2  6E7A               	movwf	_RB6_Flag^0,c	;volatile
  3676   0017F4                     
  3677                           ;MCAL_Layer/MCAL_Interrupts/MCAL_Interrupt_Manager.c: 108:         RB6_ISR(1);
  3678   0017F4  0E01               	movlw	1
  3679   0017F6  ECB6  F011         	call	_RB6_ISR
  3680   0017FA                     i2l999:
  3681                           
  3682                           ;MCAL_Layer/MCAL_Interrupts/MCAL_Interrupt_Manager.c: 111:     if((1 == INTCONbits.RBIE)
      +                           && (1 == INTCONbits.RBIF) && (PORTBbits.RB6 == LOW) && (0 == RB6_Flag)){
  3683   0017FA  A6F2               	btfss	242,3,c	;volatile
  3684   0017FC  EF02  F00C         	goto	i2u649_41
  3685   001800  EF04  F00C         	goto	i2u649_40
  3686   001804                     i2u649_41:
  3687   001804  EF1F  F00C         	goto	i2l1001
  3688   001808                     i2u649_40:
  3689   001808  A0F2               	btfss	242,0,c	;volatile
  3690   00180A  EF09  F00C         	goto	i2u650_41
  3691   00180E  EF0B  F00C         	goto	i2u650_40
  3692   001812                     i2u650_41:
  3693   001812  EF1F  F00C         	goto	i2l1001
  3694   001816                     i2u650_40:
  3695   001816  BC81               	btfsc	129,6,c	;volatile
  3696   001818  EF10  F00C         	goto	i2u651_41
  3697   00181C  EF12  F00C         	goto	i2u651_40
  3698   001820                     i2u651_41:
  3699   001820  EF1F  F00C         	goto	i2l1001
  3700   001824                     i2u651_40:
  3701   001824  507A               	movf	_RB6_Flag^0,w,c	;volatile
  3702   001826  A4D8               	btfss	status,2,c
  3703   001828  EF18  F00C         	goto	i2u652_41
  3704   00182C  EF1A  F00C         	goto	i2u652_40
  3705   001830                     i2u652_41:
  3706   001830  EF1F  F00C         	goto	i2l1001
  3707   001834                     i2u652_40:
  3708   001834                     
  3709                           ;MCAL_Layer/MCAL_Interrupts/MCAL_Interrupt_Manager.c: 112:         RB6_Flag = 1;
  3710   001834  0E01               	movlw	1
  3711   001836  6E7A               	movwf	_RB6_Flag^0,c	;volatile
  3712   001838                     
  3713                           ;MCAL_Layer/MCAL_Interrupts/MCAL_Interrupt_Manager.c: 113:         RB6_ISR(0);
  3714   001838  0E00               	movlw	0
  3715   00183A  ECB6  F011         	call	_RB6_ISR
  3716   00183E                     i2l1001:
  3717                           
  3718                           ;MCAL_Layer/MCAL_Interrupts/MCAL_Interrupt_Manager.c: 116:     if((1 == INTCONbits.RBIE)
      +                           && (1 == INTCONbits.RBIF) && (PORTBbits.RB7 == HIGH) && (1 == RB7_Flag)){
  3719   00183E  A6F2               	btfss	242,3,c	;volatile
  3720   001840  EF24  F00C         	goto	i2u653_41
  3721   001844  EF26  F00C         	goto	i2u653_40
  3722   001848                     i2u653_41:
  3723   001848  EF41  F00C         	goto	i2l1003
  3724   00184C                     i2u653_40:
  3725   00184C  A0F2               	btfss	242,0,c	;volatile
  3726   00184E  EF2B  F00C         	goto	i2u654_41
  3727   001852  EF2D  F00C         	goto	i2u654_40
  3728   001856                     i2u654_41:
  3729   001856  EF41  F00C         	goto	i2l1003
  3730   00185A                     i2u654_40:
  3731   00185A  AE81               	btfss	129,7,c	;volatile
  3732   00185C  EF32  F00C         	goto	i2u655_41
  3733   001860  EF34  F00C         	goto	i2u655_40
  3734   001864                     i2u655_41:
  3735   001864  EF41  F00C         	goto	i2l1003
  3736   001868                     i2u655_40:
  3737   001868  0479               	decf	_RB7_Flag^0,w,c	;volatile
  3738   00186A  A4D8               	btfss	status,2,c
  3739   00186C  EF3A  F00C         	goto	i2u656_41
  3740   001870  EF3C  F00C         	goto	i2u656_40
  3741   001874                     i2u656_41:
  3742   001874  EF41  F00C         	goto	i2l1003
  3743   001878                     i2u656_40:
  3744   001878                     
  3745                           ;MCAL_Layer/MCAL_Interrupts/MCAL_Interrupt_Manager.c: 117:         RB7_Flag = 0;
  3746   001878  0E00               	movlw	0
  3747   00187A  6E79               	movwf	_RB7_Flag^0,c	;volatile
  3748   00187C                     
  3749                           ;MCAL_Layer/MCAL_Interrupts/MCAL_Interrupt_Manager.c: 118:         RB7_ISR(1);
  3750   00187C  0E01               	movlw	1
  3751   00187E  ECA9  F011         	call	_RB7_ISR
  3752   001882                     i2l1003:
  3753                           
  3754                           ;MCAL_Layer/MCAL_Interrupts/MCAL_Interrupt_Manager.c: 121:     if((1 == INTCONbits.RBIE)
      +                           && (1 == INTCONbits.RBIF) && (PORTBbits.RB7 == LOW) && (0 == RB7_Flag)){
  3755   001882  A6F2               	btfss	242,3,c	;volatile
  3756   001884  EF46  F00C         	goto	i2u657_41
  3757   001888  EF48  F00C         	goto	i2u657_40
  3758   00188C                     i2u657_41:
  3759   00188C  EF63  F00C         	goto	i2l1006
  3760   001890                     i2u657_40:
  3761   001890  A0F2               	btfss	242,0,c	;volatile
  3762   001892  EF4D  F00C         	goto	i2u658_41
  3763   001896  EF4F  F00C         	goto	i2u658_40
  3764   00189A                     i2u658_41:
  3765   00189A  EF63  F00C         	goto	i2l1006
  3766   00189E                     i2u658_40:
  3767   00189E  BE81               	btfsc	129,7,c	;volatile
  3768   0018A0  EF54  F00C         	goto	i2u659_41
  3769   0018A4  EF56  F00C         	goto	i2u659_40
  3770   0018A8                     i2u659_41:
  3771   0018A8  EF63  F00C         	goto	i2l1006
  3772   0018AC                     i2u659_40:
  3773   0018AC  5079               	movf	_RB7_Flag^0,w,c	;volatile
  3774   0018AE  A4D8               	btfss	status,2,c
  3775   0018B0  EF5C  F00C         	goto	i2u660_41
  3776   0018B4  EF5E  F00C         	goto	i2u660_40
  3777   0018B8                     i2u660_41:
  3778   0018B8  EF63  F00C         	goto	i2l1006
  3779   0018BC                     i2u660_40:
  3780   0018BC                     
  3781                           ;MCAL_Layer/MCAL_Interrupts/MCAL_Interrupt_Manager.c: 122:         RB7_Flag = 1;
  3782   0018BC  0E01               	movlw	1
  3783   0018BE  6E79               	movwf	_RB7_Flag^0,c	;volatile
  3784   0018C0                     
  3785                           ;MCAL_Layer/MCAL_Interrupts/MCAL_Interrupt_Manager.c: 123:         RB7_ISR(0);
  3786   0018C0  0E00               	movlw	0
  3787   0018C2  ECA9  F011         	call	_RB7_ISR
  3788   0018C6                     i2l1006:
  3789   0018C6  927D               	bcf	int$flags,1,c	;clear compiler interrupt flag (level 2)
  3790   0018C8  0011               	retfie		f
  3791   0018CA                     __end_of_InterruptManagerLow:
  3792                           	callstack 0
  3793                           
  3794 ;; *************** function _USART_TX_ISR *****************
  3795 ;; Defined at:
  3796 ;;		line 6 in file "MCAL_Layer/MCAL_USART/MCAL_USART.c"
  3797 ;; Parameters:    Size  Location     Type
  3798 ;;		None
  3799 ;; Auto vars:     Size  Location     Type
  3800 ;;		None
  3801 ;; Return value:  Size  Location     Type
  3802 ;;                  1    wreg      void 
  3803 ;; Registers used:
  3804 ;;		None
  3805 ;; Tracked objects:
  3806 ;;		On entry : 0/0
  3807 ;;		On exit  : 0/0
  3808 ;;		Unchanged: 0/0
  3809 ;; Data sizes:     COMRAM   BANK0   BANK1   BANK2   BANK3   BANK4   BANK5   BANK6   BANK7   BANK8   BANK9  BANK10  BANK1
      +1  BANK12  BANK13  BANK14  BANK15
  3810 ;;      Params:         0       0       0       0       0       0       0       0       0       0       0       0       
      +0       0       0       0       0
  3811 ;;      Locals:         0       0       0       0       0       0       0       0       0       0       0       0       
      +0       0       0       0       0
  3812 ;;      Temps:          0       0       0       0       0       0       0       0       0       0       0       0       
      +0       0       0       0       0
  3813 ;;      Totals:         0       0       0       0       0       0       0       0       0       0       0       0       
      +0       0       0       0       0
  3814 ;;Total ram usage:        0 bytes
  3815 ;; Hardware stack levels used: 1
  3816 ;; This function calls:
  3817 ;;		Nothing
  3818 ;; This function is called by:
  3819 ;;		_InterruptManagerLow
  3820 ;; This function uses a non-reentrant model
  3821 ;;
  3822                           
  3823                           	psect	text16
  3824   00240C                     __ptext16:
  3825                           	callstack 0
  3826   00240C                     _USART_TX_ISR:
  3827                           	callstack 26
  3828   00240C                     
  3829                           ;MCAL_Layer/MCAL_USART/MCAL_USART.c: 7:     (PIE1bits.TXIE = 0);
  3830   00240C  989D               	bcf	157,4,c	;volatile
  3831   00240E  0012               	return		;funcret
  3832   002410                     __end_of_USART_TX_ISR:
  3833                           	callstack 0
  3834                           
  3835 ;; *************** function _USART_RX_ISR *****************
  3836 ;; Defined at:
  3837 ;;		line 18 in file "MCAL_Layer/MCAL_USART/MCAL_USART.c"
  3838 ;; Parameters:    Size  Location     Type
  3839 ;;		None
  3840 ;; Auto vars:     Size  Location     Type
  3841 ;;		None
  3842 ;; Return value:  Size  Location     Type
  3843 ;;                  1    wreg      void 
  3844 ;; Registers used:
  3845 ;;		wreg, status,2, status,0
  3846 ;; Tracked objects:
  3847 ;;		On entry : 0/0
  3848 ;;		On exit  : 0/0
  3849 ;;		Unchanged: 0/0
  3850 ;; Data sizes:     COMRAM   BANK0   BANK1   BANK2   BANK3   BANK4   BANK5   BANK6   BANK7   BANK8   BANK9  BANK10  BANK1
      +1  BANK12  BANK13  BANK14  BANK15
  3851 ;;      Params:         0       0       0       0       0       0       0       0       0       0       0       0       
      +0       0       0       0       0
  3852 ;;      Locals:         0       0       0       0       0       0       0       0       0       0       0       0       
      +0       0       0       0       0
  3853 ;;      Temps:          0       0       0       0       0       0       0       0       0       0       0       0       
      +0       0       0       0       0
  3854 ;;      Totals:         0       0       0       0       0       0       0       0       0       0       0       0       
      +0       0       0       0       0
  3855 ;;Total ram usage:        0 bytes
  3856 ;; Hardware stack levels used: 1
  3857 ;; This function calls:
  3858 ;;		Nothing
  3859 ;; This function is called by:
  3860 ;;		_InterruptManagerLow
  3861 ;; This function uses a non-reentrant model
  3862 ;;
  3863                           
  3864                           	psect	text17
  3865   00242A                     __ptext17:
  3866                           	callstack 0
  3867   00242A                     _USART_RX_ISR:
  3868                           	callstack 26
  3869   00242A  0012               	return		;funcret
  3870   00242C                     __end_of_USART_RX_ISR:
  3871                           	callstack 0
  3872                           
  3873 ;; *************** function _TMR3_ISR *****************
  3874 ;; Defined at:
  3875 ;;		line 7 in file "MCAL_Layer/MCAL_TIMER3/MCAL_TIMER3.c"
  3876 ;; Parameters:    Size  Location     Type
  3877 ;;		None
  3878 ;; Auto vars:     Size  Location     Type
  3879 ;;		None
  3880 ;; Return value:  Size  Location     Type
  3881 ;;                  1    wreg      void 
  3882 ;; Registers used:
  3883 ;;		wreg, status,2
  3884 ;; Tracked objects:
  3885 ;;		On entry : 0/0
  3886 ;;		On exit  : 0/0
  3887 ;;		Unchanged: 0/0
  3888 ;; Data sizes:     COMRAM   BANK0   BANK1   BANK2   BANK3   BANK4   BANK5   BANK6   BANK7   BANK8   BANK9  BANK10  BANK1
      +1  BANK12  BANK13  BANK14  BANK15
  3889 ;;      Params:         0       0       0       0       0       0       0       0       0       0       0       0       
      +0       0       0       0       0
  3890 ;;      Locals:         0       0       0       0       0       0       0       0       0       0       0       0       
      +0       0       0       0       0
  3891 ;;      Temps:          0       0       0       0       0       0       0       0       0       0       0       0       
      +0       0       0       0       0
  3892 ;;      Totals:         0       0       0       0       0       0       0       0       0       0       0       0       
      +0       0       0       0       0
  3893 ;;Total ram usage:        0 bytes
  3894 ;; Hardware stack levels used: 1
  3895 ;; This function calls:
  3896 ;;		Nothing
  3897 ;; This function is called by:
  3898 ;;		_InterruptManagerLow
  3899 ;; This function uses a non-reentrant model
  3900 ;;
  3901                           
  3902                           	psect	text18
  3903   0023D0                     __ptext18:
  3904                           	callstack 0
  3905   0023D0                     _TMR3_ISR:
  3906                           	callstack 26
  3907   0023D0                     
  3908                           ;MCAL_Layer/MCAL_TIMER3/MCAL_TIMER3.c: 8:     (PIR2bits.TMR3IF = 0);
  3909   0023D0  92A1               	bcf	161,1,c	;volatile
  3910   0023D2                     
  3911                           ;MCAL_Layer/MCAL_TIMER3/MCAL_TIMER3.c: 9:     TMR3H = (uint8)(Timer3_Preload_Value >> 8)
      +                          ;
  3912   0023D2  5049               	movf	(_Timer3_Preload_Value+1)^0,w,c
  3913   0023D4  6EB3               	movwf	179,c	;volatile
  3914   0023D6                     
  3915                           ;MCAL_Layer/MCAL_TIMER3/MCAL_TIMER3.c: 10:     TMR3L = (uint8)(Timer3_Preload_Value);
  3916   0023D6  C048  FFB2         	movff	_Timer3_Preload_Value,4018	;volatile
  3917   0023DA  0012               	return		;funcret
  3918   0023DC                     __end_of_TMR3_ISR:
  3919                           	callstack 0
  3920                           
  3921 ;; *************** function _TMR2_ISR *****************
  3922 ;; Defined at:
  3923 ;;		line 6 in file "MCAL_Layer/MCAL_TIMER2/MCAL_TIMER2.c"
  3924 ;; Parameters:    Size  Location     Type
  3925 ;;		None
  3926 ;; Auto vars:     Size  Location     Type
  3927 ;;		None
  3928 ;; Return value:  Size  Location     Type
  3929 ;;                  1    wreg      void 
  3930 ;; Registers used:
  3931 ;;		None
  3932 ;; Tracked objects:
  3933 ;;		On entry : 0/0
  3934 ;;		On exit  : 0/0
  3935 ;;		Unchanged: 0/0
  3936 ;; Data sizes:     COMRAM   BANK0   BANK1   BANK2   BANK3   BANK4   BANK5   BANK6   BANK7   BANK8   BANK9  BANK10  BANK1
      +1  BANK12  BANK13  BANK14  BANK15
  3937 ;;      Params:         0       0       0       0       0       0       0       0       0       0       0       0       
      +0       0       0       0       0
  3938 ;;      Locals:         0       0       0       0       0       0       0       0       0       0       0       0       
      +0       0       0       0       0
  3939 ;;      Temps:          0       0       0       0       0       0       0       0       0       0       0       0       
      +0       0       0       0       0
  3940 ;;      Totals:         0       0       0       0       0       0       0       0       0       0       0       0       
      +0       0       0       0       0
  3941 ;;Total ram usage:        0 bytes
  3942 ;; Hardware stack levels used: 1
  3943 ;; This function calls:
  3944 ;;		Nothing
  3945 ;; This function is called by:
  3946 ;;		_InterruptManagerLow
  3947 ;; This function uses a non-reentrant model
  3948 ;;
  3949                           
  3950                           	psect	text19
  3951   0023F4                     __ptext19:
  3952                           	callstack 0
  3953   0023F4                     _TMR2_ISR:
  3954                           	callstack 26
  3955   0023F4                     
  3956                           ;MCAL_Layer/MCAL_TIMER2/MCAL_TIMER2.c: 7:     (PIR1bits.TMR2IF = 0);
  3957   0023F4  929E               	bcf	158,1,c	;volatile
  3958                           
  3959                           ;MCAL_Layer/MCAL_TIMER2/MCAL_TIMER2.c: 8:     TMR2 = Timer2_Preload_Value;
  3960   0023F6  C070  FFCC         	movff	_Timer2_Preload_Value,4044	;volatile
  3961   0023FA  0012               	return		;funcret
  3962   0023FC                     __end_of_TMR2_ISR:
  3963                           	callstack 0
  3964                           
  3965 ;; *************** function _TMR1_ISR *****************
  3966 ;; Defined at:
  3967 ;;		line 6 in file "MCAL_Layer/TIMER1/TIMER1.c"
  3968 ;; Parameters:    Size  Location     Type
  3969 ;;		None
  3970 ;; Auto vars:     Size  Location     Type
  3971 ;;		None
  3972 ;; Return value:  Size  Location     Type
  3973 ;;                  1    wreg      void 
  3974 ;; Registers used:
  3975 ;;		wreg, status,2
  3976 ;; Tracked objects:
  3977 ;;		On entry : 0/0
  3978 ;;		On exit  : 0/0
  3979 ;;		Unchanged: 0/0
  3980 ;; Data sizes:     COMRAM   BANK0   BANK1   BANK2   BANK3   BANK4   BANK5   BANK6   BANK7   BANK8   BANK9  BANK10  BANK1
      +1  BANK12  BANK13  BANK14  BANK15
  3981 ;;      Params:         0       0       0       0       0       0       0       0       0       0       0       0       
      +0       0       0       0       0
  3982 ;;      Locals:         0       0       0       0       0       0       0       0       0       0       0       0       
      +0       0       0       0       0
  3983 ;;      Temps:          0       0       0       0       0       0       0       0       0       0       0       0       
      +0       0       0       0       0
  3984 ;;      Totals:         0       0       0       0       0       0       0       0       0       0       0       0       
      +0       0       0       0       0
  3985 ;;Total ram usage:        0 bytes
  3986 ;; Hardware stack levels used: 1
  3987 ;; This function calls:
  3988 ;;		Nothing
  3989 ;; This function is called by:
  3990 ;;		_InterruptManagerLow
  3991 ;; This function uses a non-reentrant model
  3992 ;;
  3993                           
  3994                           	psect	text20
  3995   0023DC                     __ptext20:
  3996                           	callstack 0
  3997   0023DC                     _TMR1_ISR:
  3998                           	callstack 26
  3999   0023DC                     
  4000                           ;MCAL_Layer/TIMER1/TIMER1.c: 7:     (PIR1bits.TMR1IF = 0);
  4001   0023DC  909E               	bcf	158,0,c	;volatile
  4002   0023DE                     
  4003                           ;MCAL_Layer/TIMER1/TIMER1.c: 8:     TMR1H = (uint8)(Preload_Value >> 8);
  4004   0023DE  504D               	movf	(_Preload_Value+1)^0,w,c
  4005   0023E0  6ECF               	movwf	207,c	;volatile
  4006   0023E2                     
  4007                           ;MCAL_Layer/TIMER1/TIMER1.c: 9:     TMR1L = (uint8)(Preload_Value);
  4008   0023E2  C04C  FFCE         	movff	_Preload_Value,4046	;volatile
  4009   0023E6  0012               	return		;funcret
  4010   0023E8                     __end_of_TMR1_ISR:
  4011                           	callstack 0
  4012                           
  4013 ;; *************** function _TMR0_ISR *****************
  4014 ;; Defined at:
  4015 ;;		line 6 in file "MCAL_Layer/MCAL_TIMER/MCAL_TIMER.c"
  4016 ;; Parameters:    Size  Location     Type
  4017 ;;		None
  4018 ;; Auto vars:     Size  Location     Type
  4019 ;;		None
  4020 ;; Return value:  Size  Location     Type
  4021 ;;                  1    wreg      void 
  4022 ;; Registers used:
  4023 ;;		wreg, status,2
  4024 ;; Tracked objects:
  4025 ;;		On entry : 0/0
  4026 ;;		On exit  : 0/0
  4027 ;;		Unchanged: 0/0
  4028 ;; Data sizes:     COMRAM   BANK0   BANK1   BANK2   BANK3   BANK4   BANK5   BANK6   BANK7   BANK8   BANK9  BANK10  BANK1
      +1  BANK12  BANK13  BANK14  BANK15
  4029 ;;      Params:         0       0       0       0       0       0       0       0       0       0       0       0       
      +0       0       0       0       0
  4030 ;;      Locals:         0       0       0       0       0       0       0       0       0       0       0       0       
      +0       0       0       0       0
  4031 ;;      Temps:          0       0       0       0       0       0       0       0       0       0       0       0       
      +0       0       0       0       0
  4032 ;;      Totals:         0       0       0       0       0       0       0       0       0       0       0       0       
      +0       0       0       0       0
  4033 ;;Total ram usage:        0 bytes
  4034 ;; Hardware stack levels used: 1
  4035 ;; This function calls:
  4036 ;;		Nothing
  4037 ;; This function is called by:
  4038 ;;		_InterruptManagerLow
  4039 ;; This function uses a non-reentrant model
  4040 ;;
  4041                           
  4042                           	psect	text21
  4043   0023E8                     __ptext21:
  4044                           	callstack 0
  4045   0023E8                     _TMR0_ISR:
  4046                           	callstack 26
  4047   0023E8                     
  4048                           ;MCAL_Layer/MCAL_TIMER/MCAL_TIMER.c: 7:     (INTCONbits.TMR0IF = 0);
  4049   0023E8  94F2               	bcf	242,2,c	;volatile
  4050   0023EA                     
  4051                           ;MCAL_Layer/MCAL_TIMER/MCAL_TIMER.c: 8:     TMR0H = (uint8)(Preload_Value >> 8);
  4052   0023EA  504D               	movf	(_Preload_Value+1)^0,w,c
  4053   0023EC  6ED7               	movwf	215,c	;volatile
  4054   0023EE                     
  4055                           ;MCAL_Layer/MCAL_TIMER/MCAL_TIMER.c: 9:     TMR0L = (uint8)(Preload_Value);
  4056   0023EE  C04C  FFD6         	movff	_Preload_Value,4054	;volatile
  4057   0023F2  0012               	return		;funcret
  4058   0023F4                     __end_of_TMR0_ISR:
  4059                           	callstack 0
  4060                           
  4061 ;; *************** function _RB7_ISR *****************
  4062 ;; Defined at:
  4063 ;;		line 72 in file "MCAL_Layer/MCAL_Interrupts/MCAL_External_Interrupt.c"
  4064 ;; Parameters:    Size  Location     Type
  4065 ;;  RB7_SRC         1    wreg     unsigned char 
  4066 ;; Auto vars:     Size  Location     Type
  4067 ;;  RB7_SRC         1    0[COMRAM] unsigned char 
  4068 ;; Return value:  Size  Location     Type
  4069 ;;                  1    wreg      void 
  4070 ;; Registers used:
  4071 ;;		wreg, status,2, status,0
  4072 ;; Tracked objects:
  4073 ;;		On entry : 0/0
  4074 ;;		On exit  : 0/0
  4075 ;;		Unchanged: 0/0
  4076 ;; Data sizes:     COMRAM   BANK0   BANK1   BANK2   BANK3   BANK4   BANK5   BANK6   BANK7   BANK8   BANK9  BANK10  BANK1
      +1  BANK12  BANK13  BANK14  BANK15
  4077 ;;      Params:         0       0       0       0       0       0       0       0       0       0       0       0       
      +0       0       0       0       0
  4078 ;;      Locals:         1       0       0       0       0       0       0       0       0       0       0       0       
      +0       0       0       0       0
  4079 ;;      Temps:          0       0       0       0       0       0       0       0       0       0       0       0       
      +0       0       0       0       0
  4080 ;;      Totals:         1       0       0       0       0       0       0       0       0       0       0       0       
      +0       0       0       0       0
  4081 ;;Total ram usage:        1 bytes
  4082 ;; Hardware stack levels used: 1
  4083 ;; This function calls:
  4084 ;;		Nothing
  4085 ;; This function is called by:
  4086 ;;		_InterruptManagerLow
  4087 ;; This function uses a non-reentrant model
  4088 ;;
  4089                           
  4090                           	psect	text22
  4091   002352                     __ptext22:
  4092                           	callstack 0
  4093   002352                     _RB7_ISR:
  4094                           	callstack 26
  4095                           
  4096                           ;incstack = 0
  4097                           ;RB7_ISR@RB7_SRC stored from wreg
  4098   002352  6E01               	movwf	RB7_ISR@RB7_SRC^0,c
  4099   002354                     
  4100                           ;MCAL_Layer/MCAL_Interrupts/MCAL_External_Interrupt.c: 73:     (INTCONbits.RBIF = 0) ;
  4101   002354  90F2               	bcf	242,0,c	;volatile
  4102   002356                     
  4103                           ;MCAL_Layer/MCAL_Interrupts/MCAL_External_Interrupt.c: 75:     if(HIGH==RB7_SRC){
  4104   002356  0401               	decf	RB7_ISR@RB7_SRC^0,w,c
  4105   002358  A4D8               	btfss	status,2,c
  4106   00235A  EFB1  F011         	goto	i2u139_41
  4107   00235E  EFB3  F011         	goto	i2u139_40
  4108   002362                     i2u139_41:
  4109   002362  EFB5  F011         	goto	i2l3211
  4110   002366                     i2u139_40:
  4111   002366  EFB5  F011         	goto	i2l1084
  4112   00236A                     i2l3211:
  4113   00236A                     i2l1084:
  4114   00236A  0012               	return		;funcret
  4115   00236C                     __end_of_RB7_ISR:
  4116                           	callstack 0
  4117                           
  4118 ;; *************** function _RB6_ISR *****************
  4119 ;; Defined at:
  4120 ;;		line 59 in file "MCAL_Layer/MCAL_Interrupts/MCAL_External_Interrupt.c"
  4121 ;; Parameters:    Size  Location     Type
  4122 ;;  RB6_SRC         1    wreg     unsigned char 
  4123 ;; Auto vars:     Size  Location     Type
  4124 ;;  RB6_SRC         1    0[COMRAM] unsigned char 
  4125 ;; Return value:  Size  Location     Type
  4126 ;;                  1    wreg      void 
  4127 ;; Registers used:
  4128 ;;		wreg, status,2, status,0
  4129 ;; Tracked objects:
  4130 ;;		On entry : 0/0
  4131 ;;		On exit  : 0/0
  4132 ;;		Unchanged: 0/0
  4133 ;; Data sizes:     COMRAM   BANK0   BANK1   BANK2   BANK3   BANK4   BANK5   BANK6   BANK7   BANK8   BANK9  BANK10  BANK1
      +1  BANK12  BANK13  BANK14  BANK15
  4134 ;;      Params:         0       0       0       0       0       0       0       0       0       0       0       0       
      +0       0       0       0       0
  4135 ;;      Locals:         1       0       0       0       0       0       0       0       0       0       0       0       
      +0       0       0       0       0
  4136 ;;      Temps:          0       0       0       0       0       0       0       0       0       0       0       0       
      +0       0       0       0       0
  4137 ;;      Totals:         1       0       0       0       0       0       0       0       0       0       0       0       
      +0       0       0       0       0
  4138 ;;Total ram usage:        1 bytes
  4139 ;; Hardware stack levels used: 1
  4140 ;; This function calls:
  4141 ;;		Nothing
  4142 ;; This function is called by:
  4143 ;;		_InterruptManagerLow
  4144 ;; This function uses a non-reentrant model
  4145 ;;
  4146                           
  4147                           	psect	text23
  4148   00236C                     __ptext23:
  4149                           	callstack 0
  4150   00236C                     _RB6_ISR:
  4151                           	callstack 26
  4152                           
  4153                           ;incstack = 0
  4154                           ;RB6_ISR@RB6_SRC stored from wreg
  4155   00236C  6E01               	movwf	RB6_ISR@RB6_SRC^0,c
  4156   00236E                     
  4157                           ;MCAL_Layer/MCAL_Interrupts/MCAL_External_Interrupt.c: 60:     (INTCONbits.RBIF = 0) ;
  4158   00236E  90F2               	bcf	242,0,c	;volatile
  4159   002370                     
  4160                           ;MCAL_Layer/MCAL_Interrupts/MCAL_External_Interrupt.c: 62:     if(HIGH==RB6_SRC){
  4161   002370  0401               	decf	RB6_ISR@RB6_SRC^0,w,c
  4162   002372  A4D8               	btfss	status,2,c
  4163   002374  EFBE  F011         	goto	i2u138_41
  4164   002378  EFC0  F011         	goto	i2u138_40
  4165   00237C                     i2u138_41:
  4166   00237C  EFC2  F011         	goto	i2l3201
  4167   002380                     i2u138_40:
  4168   002380  EFC2  F011         	goto	i2l1075
  4169   002384                     i2l3201:
  4170   002384                     i2l1075:
  4171   002384  0012               	return		;funcret
  4172   002386                     __end_of_RB6_ISR:
  4173                           	callstack 0
  4174                           
  4175 ;; *************** function _RB5_ISR *****************
  4176 ;; Defined at:
  4177 ;;		line 46 in file "MCAL_Layer/MCAL_Interrupts/MCAL_External_Interrupt.c"
  4178 ;; Parameters:    Size  Location     Type
  4179 ;;  RB5_SRC         1    wreg     unsigned char 
  4180 ;; Auto vars:     Size  Location     Type
  4181 ;;  RB5_SRC         1    0[COMRAM] unsigned char 
  4182 ;; Return value:  Size  Location     Type
  4183 ;;                  1    wreg      void 
  4184 ;; Registers used:
  4185 ;;		wreg, status,2, status,0
  4186 ;; Tracked objects:
  4187 ;;		On entry : 0/0
  4188 ;;		On exit  : 0/0
  4189 ;;		Unchanged: 0/0
  4190 ;; Data sizes:     COMRAM   BANK0   BANK1   BANK2   BANK3   BANK4   BANK5   BANK6   BANK7   BANK8   BANK9  BANK10  BANK1
      +1  BANK12  BANK13  BANK14  BANK15
  4191 ;;      Params:         0       0       0       0       0       0       0       0       0       0       0       0       
      +0       0       0       0       0
  4192 ;;      Locals:         1       0       0       0       0       0       0       0       0       0       0       0       
      +0       0       0       0       0
  4193 ;;      Temps:          0       0       0       0       0       0       0       0       0       0       0       0       
      +0       0       0       0       0
  4194 ;;      Totals:         1       0       0       0       0       0       0       0       0       0       0       0       
      +0       0       0       0       0
  4195 ;;Total ram usage:        1 bytes
  4196 ;; Hardware stack levels used: 1
  4197 ;; This function calls:
  4198 ;;		Nothing
  4199 ;; This function is called by:
  4200 ;;		_InterruptManagerLow
  4201 ;; This function uses a non-reentrant model
  4202 ;;
  4203                           
  4204                           	psect	text24
  4205   002386                     __ptext24:
  4206                           	callstack 0
  4207   002386                     _RB5_ISR:
  4208                           	callstack 26
  4209                           
  4210                           ;incstack = 0
  4211                           ;RB5_ISR@RB5_SRC stored from wreg
  4212   002386  6E01               	movwf	RB5_ISR@RB5_SRC^0,c
  4213   002388                     
  4214                           ;MCAL_Layer/MCAL_Interrupts/MCAL_External_Interrupt.c: 47:     (INTCONbits.RBIF = 0) ;
  4215   002388  90F2               	bcf	242,0,c	;volatile
  4216   00238A                     
  4217                           ;MCAL_Layer/MCAL_Interrupts/MCAL_External_Interrupt.c: 49:     if(HIGH==RB5_SRC){
  4218   00238A  0401               	decf	RB5_ISR@RB5_SRC^0,w,c
  4219   00238C  A4D8               	btfss	status,2,c
  4220   00238E  EFCB  F011         	goto	i2u137_41
  4221   002392  EFCD  F011         	goto	i2u137_40
  4222   002396                     i2u137_41:
  4223   002396  EFCF  F011         	goto	i2l3191
  4224   00239A                     i2u137_40:
  4225   00239A  EFCF  F011         	goto	i2l1066
  4226   00239E                     i2l3191:
  4227   00239E                     i2l1066:
  4228   00239E  0012               	return		;funcret
  4229   0023A0                     __end_of_RB5_ISR:
  4230                           	callstack 0
  4231                           
  4232 ;; *************** function _RB4_ISR *****************
  4233 ;; Defined at:
  4234 ;;		line 32 in file "MCAL_Layer/MCAL_Interrupts/MCAL_External_Interrupt.c"
  4235 ;; Parameters:    Size  Location     Type
  4236 ;;  RB4_SRC         1    wreg     unsigned char 
  4237 ;; Auto vars:     Size  Location     Type
  4238 ;;  RB4_SRC         1    0[COMRAM] unsigned char 
  4239 ;; Return value:  Size  Location     Type
  4240 ;;                  1    wreg      void 
  4241 ;; Registers used:
  4242 ;;		wreg, status,2, status,0
  4243 ;; Tracked objects:
  4244 ;;		On entry : 0/0
  4245 ;;		On exit  : 0/0
  4246 ;;		Unchanged: 0/0
  4247 ;; Data sizes:     COMRAM   BANK0   BANK1   BANK2   BANK3   BANK4   BANK5   BANK6   BANK7   BANK8   BANK9  BANK10  BANK1
      +1  BANK12  BANK13  BANK14  BANK15
  4248 ;;      Params:         0       0       0       0       0       0       0       0       0       0       0       0       
      +0       0       0       0       0
  4249 ;;      Locals:         1       0       0       0       0       0       0       0       0       0       0       0       
      +0       0       0       0       0
  4250 ;;      Temps:          0       0       0       0       0       0       0       0       0       0       0       0       
      +0       0       0       0       0
  4251 ;;      Totals:         1       0       0       0       0       0       0       0       0       0       0       0       
      +0       0       0       0       0
  4252 ;;Total ram usage:        1 bytes
  4253 ;; Hardware stack levels used: 1
  4254 ;; This function calls:
  4255 ;;		Nothing
  4256 ;; This function is called by:
  4257 ;;		_InterruptManagerLow
  4258 ;; This function uses a non-reentrant model
  4259 ;;
  4260                           
  4261                           	psect	text25
  4262   0023A0                     __ptext25:
  4263                           	callstack 0
  4264   0023A0                     _RB4_ISR:
  4265                           	callstack 26
  4266                           
  4267                           ;incstack = 0
  4268                           ;RB4_ISR@RB4_SRC stored from wreg
  4269   0023A0  6E01               	movwf	RB4_ISR@RB4_SRC^0,c
  4270   0023A2                     
  4271                           ;MCAL_Layer/MCAL_Interrupts/MCAL_External_Interrupt.c: 33:     (INTCONbits.RBIF = 0) ;
  4272   0023A2  90F2               	bcf	242,0,c	;volatile
  4273   0023A4                     
  4274                           ;MCAL_Layer/MCAL_Interrupts/MCAL_External_Interrupt.c: 35:     if(HIGH==RB4_SRC){
  4275   0023A4  0401               	decf	RB4_ISR@RB4_SRC^0,w,c
  4276   0023A6  A4D8               	btfss	status,2,c
  4277   0023A8  EFD8  F011         	goto	i2u136_41
  4278   0023AC  EFDA  F011         	goto	i2u136_40
  4279   0023B0                     i2u136_41:
  4280   0023B0  EFDC  F011         	goto	i2l3181
  4281   0023B4                     i2u136_40:
  4282   0023B4  EFDC  F011         	goto	i2l1057
  4283   0023B8                     i2l3181:
  4284   0023B8                     i2l1057:
  4285   0023B8  0012               	return		;funcret
  4286   0023BA                     __end_of_RB4_ISR:
  4287                           	callstack 0
  4288                           
  4289 ;; *************** function _INT2_ISR *****************
  4290 ;; Defined at:
  4291 ;;		line 103 in file "MCAL_Layer/MCAL_Interrupts/MCAL_External_Interrupt.c"
  4292 ;; Parameters:    Size  Location     Type
  4293 ;;		None
  4294 ;; Auto vars:     Size  Location     Type
  4295 ;;		None
  4296 ;; Return value:  Size  Location     Type
  4297 ;;                  1    wreg      void 
  4298 ;; Registers used:
  4299 ;;		None
  4300 ;; Tracked objects:
  4301 ;;		On entry : 0/0
  4302 ;;		On exit  : 0/0
  4303 ;;		Unchanged: 0/0
  4304 ;; Data sizes:     COMRAM   BANK0   BANK1   BANK2   BANK3   BANK4   BANK5   BANK6   BANK7   BANK8   BANK9  BANK10  BANK1
      +1  BANK12  BANK13  BANK14  BANK15
  4305 ;;      Params:         0       0       0       0       0       0       0       0       0       0       0       0       
      +0       0       0       0       0
  4306 ;;      Locals:         0       0       0       0       0       0       0       0       0       0       0       0       
      +0       0       0       0       0
  4307 ;;      Temps:          0       0       0       0       0       0       0       0       0       0       0       0       
      +0       0       0       0       0
  4308 ;;      Totals:         0       0       0       0       0       0       0       0       0       0       0       0       
      +0       0       0       0       0
  4309 ;;Total ram usage:        0 bytes
  4310 ;; Hardware stack levels used: 1
  4311 ;; This function calls:
  4312 ;;		Nothing
  4313 ;; This function is called by:
  4314 ;;		_InterruptManagerLow
  4315 ;; This function uses a non-reentrant model
  4316 ;;
  4317                           
  4318                           	psect	text26
  4319   002410                     __ptext26:
  4320                           	callstack 0
  4321   002410                     _INT2_ISR:
  4322                           	callstack 26
  4323   002410                     
  4324                           ;MCAL_Layer/MCAL_Interrupts/MCAL_External_Interrupt.c: 104:     (INTCON3bits.INT2IF = 0)
      +                          ;
  4325   002410  92F0               	bcf	240,1,c	;volatile
  4326   002412  0012               	return		;funcret
  4327   002414                     __end_of_INT2_ISR:
  4328                           	callstack 0
  4329                           
  4330 ;; *************** function _INT1_ISR *****************
  4331 ;; Defined at:
  4332 ;;		line 95 in file "MCAL_Layer/MCAL_Interrupts/MCAL_External_Interrupt.c"
  4333 ;; Parameters:    Size  Location     Type
  4334 ;;		None
  4335 ;; Auto vars:     Size  Location     Type
  4336 ;;		None
  4337 ;; Return value:  Size  Location     Type
  4338 ;;                  1    wreg      void 
  4339 ;; Registers used:
  4340 ;;		None
  4341 ;; Tracked objects:
  4342 ;;		On entry : 0/0
  4343 ;;		On exit  : 0/0
  4344 ;;		Unchanged: 0/0
  4345 ;; Data sizes:     COMRAM   BANK0   BANK1   BANK2   BANK3   BANK4   BANK5   BANK6   BANK7   BANK8   BANK9  BANK10  BANK1
      +1  BANK12  BANK13  BANK14  BANK15
  4346 ;;      Params:         0       0       0       0       0       0       0       0       0       0       0       0       
      +0       0       0       0       0
  4347 ;;      Locals:         0       0       0       0       0       0       0       0       0       0       0       0       
      +0       0       0       0       0
  4348 ;;      Temps:          0       0       0       0       0       0       0       0       0       0       0       0       
      +0       0       0       0       0
  4349 ;;      Totals:         0       0       0       0       0       0       0       0       0       0       0       0       
      +0       0       0       0       0
  4350 ;;Total ram usage:        0 bytes
  4351 ;; Hardware stack levels used: 1
  4352 ;; This function calls:
  4353 ;;		Nothing
  4354 ;; This function is called by:
  4355 ;;		_InterruptManagerLow
  4356 ;; This function uses a non-reentrant model
  4357 ;;
  4358                           
  4359                           	psect	text27
  4360   002414                     __ptext27:
  4361                           	callstack 0
  4362   002414                     _INT1_ISR:
  4363                           	callstack 26
  4364   002414                     
  4365                           ;MCAL_Layer/MCAL_Interrupts/MCAL_External_Interrupt.c: 96:     (INTCON3bits.INT1IF = 0);
  4366   002414  90F0               	bcf	240,0,c	;volatile
  4367   002416  0012               	return		;funcret
  4368   002418                     __end_of_INT1_ISR:
  4369                           	callstack 0
  4370                           
  4371 ;; *************** function _INT0_ISR *****************
  4372 ;; Defined at:
  4373 ;;		line 87 in file "MCAL_Layer/MCAL_Interrupts/MCAL_External_Interrupt.c"
  4374 ;; Parameters:    Size  Location     Type
  4375 ;;		None
  4376 ;; Auto vars:     Size  Location     Type
  4377 ;;		None
  4378 ;; Return value:  Size  Location     Type
  4379 ;;                  1    wreg      void 
  4380 ;; Registers used:
  4381 ;;		None
  4382 ;; Tracked objects:
  4383 ;;		On entry : 0/0
  4384 ;;		On exit  : 0/0
  4385 ;;		Unchanged: 0/0
  4386 ;; Data sizes:     COMRAM   BANK0   BANK1   BANK2   BANK3   BANK4   BANK5   BANK6   BANK7   BANK8   BANK9  BANK10  BANK1
      +1  BANK12  BANK13  BANK14  BANK15
  4387 ;;      Params:         0       0       0       0       0       0       0       0       0       0       0       0       
      +0       0       0       0       0
  4388 ;;      Locals:         0       0       0       0       0       0       0       0       0       0       0       0       
      +0       0       0       0       0
  4389 ;;      Temps:          0       0       0       0       0       0       0       0       0       0       0       0       
      +0       0       0       0       0
  4390 ;;      Totals:         0       0       0       0       0       0       0       0       0       0       0       0       
      +0       0       0       0       0
  4391 ;;Total ram usage:        0 bytes
  4392 ;; Hardware stack levels used: 1
  4393 ;; This function calls:
  4394 ;;		Nothing
  4395 ;; This function is called by:
  4396 ;;		_InterruptManagerLow
  4397 ;; This function uses a non-reentrant model
  4398 ;;
  4399                           
  4400                           	psect	text28
  4401   002418                     __ptext28:
  4402                           	callstack 0
  4403   002418                     _INT0_ISR:
  4404                           	callstack 26
  4405   002418                     
  4406                           ;MCAL_Layer/MCAL_Interrupts/MCAL_External_Interrupt.c: 88:     (INTCONbits.INT0IF = 0);
  4407   002418  92F2               	bcf	242,1,c	;volatile
  4408   00241A  0012               	return		;funcret
  4409   00241C                     __end_of_INT0_ISR:
  4410                           	callstack 0
  4411                           
  4412 ;; *************** function _I2C_ISR *****************
  4413 ;; Defined at:
  4414 ;;		line 9 in file "MCAL_Layer/MCAL_I2C/MCAL_I2C.c"
  4415 ;; Parameters:    Size  Location     Type
  4416 ;;		None
  4417 ;; Auto vars:     Size  Location     Type
  4418 ;;		None
  4419 ;; Return value:  Size  Location     Type
  4420 ;;                  1    wreg      void 
  4421 ;; Registers used:
  4422 ;;		None
  4423 ;; Tracked objects:
  4424 ;;		On entry : 0/0
  4425 ;;		On exit  : 0/0
  4426 ;;		Unchanged: 0/0
  4427 ;; Data sizes:     COMRAM   BANK0   BANK1   BANK2   BANK3   BANK4   BANK5   BANK6   BANK7   BANK8   BANK9  BANK10  BANK1
      +1  BANK12  BANK13  BANK14  BANK15
  4428 ;;      Params:         0       0       0       0       0       0       0       0       0       0       0       0       
      +0       0       0       0       0
  4429 ;;      Locals:         0       0       0       0       0       0       0       0       0       0       0       0       
      +0       0       0       0       0
  4430 ;;      Temps:          0       0       0       0       0       0       0       0       0       0       0       0       
      +0       0       0       0       0
  4431 ;;      Totals:         0       0       0       0       0       0       0       0       0       0       0       0       
      +0       0       0       0       0
  4432 ;;Total ram usage:        0 bytes
  4433 ;; Hardware stack levels used: 1
  4434 ;; This function calls:
  4435 ;;		Nothing
  4436 ;; This function is called by:
  4437 ;;		_InterruptManagerLow
  4438 ;; This function uses a non-reentrant model
  4439 ;;
  4440                           
  4441                           	psect	text29
  4442   00242C                     __ptext29:
  4443                           	callstack 0
  4444   00242C                     _I2C_ISR:
  4445                           	callstack 26
  4446   00242C  0012               	return		;funcret
  4447   00242E                     __end_of_I2C_ISR:
  4448                           	callstack 0
  4449                           
  4450 ;; *************** function _I2C_BUS_ISR *****************
  4451 ;; Defined at:
  4452 ;;		line 17 in file "MCAL_Layer/MCAL_I2C/MCAL_I2C.c"
  4453 ;; Parameters:    Size  Location     Type
  4454 ;;		None
  4455 ;; Auto vars:     Size  Location     Type
  4456 ;;		None
  4457 ;; Return value:  Size  Location     Type
  4458 ;;                  1    wreg      void 
  4459 ;; Registers used:
  4460 ;;		None
  4461 ;; Tracked objects:
  4462 ;;		On entry : 0/0
  4463 ;;		On exit  : 0/0
  4464 ;;		Unchanged: 0/0
  4465 ;; Data sizes:     COMRAM   BANK0   BANK1   BANK2   BANK3   BANK4   BANK5   BANK6   BANK7   BANK8   BANK9  BANK10  BANK1
      +1  BANK12  BANK13  BANK14  BANK15
  4466 ;;      Params:         0       0       0       0       0       0       0       0       0       0       0       0       
      +0       0       0       0       0
  4467 ;;      Locals:         0       0       0       0       0       0       0       0       0       0       0       0       
      +0       0       0       0       0
  4468 ;;      Temps:          0       0       0       0       0       0       0       0       0       0       0       0       
      +0       0       0       0       0
  4469 ;;      Totals:         0       0       0       0       0       0       0       0       0       0       0       0       
      +0       0       0       0       0
  4470 ;;Total ram usage:        0 bytes
  4471 ;; Hardware stack levels used: 1
  4472 ;; This function calls:
  4473 ;;		Nothing
  4474 ;; This function is called by:
  4475 ;;		_InterruptManagerLow
  4476 ;; This function uses a non-reentrant model
  4477 ;;
  4478                           
  4479                           	psect	text30
  4480   00242E                     __ptext30:
  4481                           	callstack 0
  4482   00242E                     _I2C_BUS_ISR:
  4483                           	callstack 26
  4484   00242E  0012               	return		;funcret
  4485   002430                     __end_of_I2C_BUS_ISR:
  4486                           	callstack 0
  4487                           
  4488 ;; *************** function _CCP2_ISR *****************
  4489 ;; Defined at:
  4490 ;;		line 243 in file "MCAL_Layer/MCAL_CCP1/MCAL_CCP1.c"
  4491 ;; Parameters:    Size  Location     Type
  4492 ;;		None
  4493 ;; Auto vars:     Size  Location     Type
  4494 ;;		None
  4495 ;; Return value:  Size  Location     Type
  4496 ;;                  1    wreg      void 
  4497 ;; Registers used:
  4498 ;;		None
  4499 ;; Tracked objects:
  4500 ;;		On entry : 0/0
  4501 ;;		On exit  : 0/0
  4502 ;;		Unchanged: 0/0
  4503 ;; Data sizes:     COMRAM   BANK0   BANK1   BANK2   BANK3   BANK4   BANK5   BANK6   BANK7   BANK8   BANK9  BANK10  BANK1
      +1  BANK12  BANK13  BANK14  BANK15
  4504 ;;      Params:         0       0       0       0       0       0       0       0       0       0       0       0       
      +0       0       0       0       0
  4505 ;;      Locals:         0       0       0       0       0       0       0       0       0       0       0       0       
      +0       0       0       0       0
  4506 ;;      Temps:          0       0       0       0       0       0       0       0       0       0       0       0       
      +0       0       0       0       0
  4507 ;;      Totals:         0       0       0       0       0       0       0       0       0       0       0       0       
      +0       0       0       0       0
  4508 ;;Total ram usage:        0 bytes
  4509 ;; Hardware stack levels used: 1
  4510 ;; This function calls:
  4511 ;;		Nothing
  4512 ;; This function is called by:
  4513 ;;		_InterruptManagerLow
  4514 ;; This function uses a non-reentrant model
  4515 ;;
  4516                           
  4517                           	psect	text31
  4518   00241C                     __ptext31:
  4519                           	callstack 0
  4520   00241C                     _CCP2_ISR:
  4521                           	callstack 26
  4522   00241C                     
  4523                           ;MCAL_Layer/MCAL_CCP1/MCAL_CCP1.c: 244:     (PIR2bits.CCP2IF = 0);
  4524   00241C  90A1               	bcf	161,0,c	;volatile
  4525   00241E  0012               	return		;funcret
  4526   002420                     __end_of_CCP2_ISR:
  4527                           	callstack 0
  4528                           
  4529 ;; *************** function _CCP1_ISR *****************
  4530 ;; Defined at:
  4531 ;;		line 235 in file "MCAL_Layer/MCAL_CCP1/MCAL_CCP1.c"
  4532 ;; Parameters:    Size  Location     Type
  4533 ;;		None
  4534 ;; Auto vars:     Size  Location     Type
  4535 ;;		None
  4536 ;; Return value:  Size  Location     Type
  4537 ;;                  1    wreg      void 
  4538 ;; Registers used:
  4539 ;;		None
  4540 ;; Tracked objects:
  4541 ;;		On entry : 0/0
  4542 ;;		On exit  : 0/0
  4543 ;;		Unchanged: 0/0
  4544 ;; Data sizes:     COMRAM   BANK0   BANK1   BANK2   BANK3   BANK4   BANK5   BANK6   BANK7   BANK8   BANK9  BANK10  BANK1
      +1  BANK12  BANK13  BANK14  BANK15
  4545 ;;      Params:         0       0       0       0       0       0       0       0       0       0       0       0       
      +0       0       0       0       0
  4546 ;;      Locals:         0       0       0       0       0       0       0       0       0       0       0       0       
      +0       0       0       0       0
  4547 ;;      Temps:          0       0       0       0       0       0       0       0       0       0       0       0       
      +0       0       0       0       0
  4548 ;;      Totals:         0       0       0       0       0       0       0       0       0       0       0       0       
      +0       0       0       0       0
  4549 ;;Total ram usage:        0 bytes
  4550 ;; Hardware stack levels used: 1
  4551 ;; This function calls:
  4552 ;;		Nothing
  4553 ;; This function is called by:
  4554 ;;		_InterruptManagerLow
  4555 ;; This function uses a non-reentrant model
  4556 ;;
  4557                           
  4558                           	psect	text32
  4559   002420                     __ptext32:
  4560                           	callstack 0
  4561   002420                     _CCP1_ISR:
  4562                           	callstack 26
  4563   002420                     
  4564                           ;MCAL_Layer/MCAL_CCP1/MCAL_CCP1.c: 236:     (PIR1bits.CCP1IF = 0);
  4565   002420  949E               	bcf	158,2,c	;volatile
  4566   002422  0012               	return		;funcret
  4567   002424                     __end_of_CCP1_ISR:
  4568                           	callstack 0
  4569                           
  4570 ;; *************** function _ADC_ISR *****************
  4571 ;; Defined at:
  4572 ;;		line 11 in file "MCAL_Layer/MCAL_ADC/MCAL_ADC.c"
  4573 ;; Parameters:    Size  Location     Type
  4574 ;;		None
  4575 ;; Auto vars:     Size  Location     Type
  4576 ;;		None
  4577 ;; Return value:  Size  Location     Type
  4578 ;;                  1    wreg      void 
  4579 ;; Registers used:
  4580 ;;		None
  4581 ;; Tracked objects:
  4582 ;;		On entry : 0/0
  4583 ;;		On exit  : 0/0
  4584 ;;		Unchanged: 0/0
  4585 ;; Data sizes:     COMRAM   BANK0   BANK1   BANK2   BANK3   BANK4   BANK5   BANK6   BANK7   BANK8   BANK9  BANK10  BANK1
      +1  BANK12  BANK13  BANK14  BANK15
  4586 ;;      Params:         0       0       0       0       0       0       0       0       0       0       0       0       
      +0       0       0       0       0
  4587 ;;      Locals:         0       0       0       0       0       0       0       0       0       0       0       0       
      +0       0       0       0       0
  4588 ;;      Temps:          0       0       0       0       0       0       0       0       0       0       0       0       
      +0       0       0       0       0
  4589 ;;      Totals:         0       0       0       0       0       0       0       0       0       0       0       0       
      +0       0       0       0       0
  4590 ;;Total ram usage:        0 bytes
  4591 ;; Hardware stack levels used: 1
  4592 ;; This function calls:
  4593 ;;		Nothing
  4594 ;; This function is called by:
  4595 ;;		_InterruptManagerLow
  4596 ;; This function uses a non-reentrant model
  4597 ;;
  4598                           
  4599                           	psect	text33
  4600   002424                     __ptext33:
  4601                           	callstack 0
  4602   002424                     _ADC_ISR:
  4603                           	callstack 26
  4604   002424                     
  4605                           ;MCAL_Layer/MCAL_ADC/MCAL_ADC.c: 12:     (PIR1bits.ADIF = 0);
  4606   002424  9C9E               	bcf	158,6,c	;volatile
  4607   002426  0012               	return		;funcret
  4608   002428                     __end_of_ADC_ISR:
  4609                           	callstack 0
  4610                           
  4611                           	psect	rparam
  4612   000000                     
  4613                           	psect	temp
  4614   00007D                     btemp:
  4615                           	callstack 0
  4616   00007D                     	ds	1
  4617   000000                     int$flags	set	btemp
  4618   000000                     wtemp8	set	btemp+1
  4619   000000                     ttemp5	set	btemp+1
  4620   000000                     ttemp6	set	btemp+4
  4621   000000                     ttemp7	set	btemp+8
  4622                           
  4623                           	psect	config
  4624                           
  4625                           ; Padding undefined space
  4626   300000                     	org	3145728
  4627   300000  FF                 	db	255
  4628                           
  4629                           ;Config register CONFIG1H @ 0x300001
  4630                           ;	Oscillator Selection bits
  4631                           ;	OSC = HS, HS oscillator
  4632                           ;	Fail-Safe Clock Monitor Enable bit
  4633                           ;	FCMEN = OFF, Fail-Safe Clock Monitor disabled
  4634                           ;	Internal/External Oscillator Switchover bit
  4635                           ;	IESO = OFF, Oscillator Switchover mode disabled
  4636   300001                     	org	3145729
  4637   300001  02                 	db	2
  4638                           
  4639                           ;Config register CONFIG2L @ 0x300002
  4640                           ;	Power-up Timer Enable bit
  4641                           ;	PWRT = OFF, PWRT disabled
  4642                           ;	Brown-out Reset Enable bits
  4643                           ;	BOREN = OFF, Brown-out Reset disabled in hardware and software
  4644                           ;	Brown Out Reset Voltage bits
  4645                           ;	BORV = 1, 
  4646   300002                     	org	3145730
  4647   300002  09                 	db	9
  4648                           
  4649                           ;Config register CONFIG2H @ 0x300003
  4650                           ;	Watchdog Timer Enable bit
  4651                           ;	WDT = OFF, WDT disabled (control is placed on the SWDTEN bit)
  4652                           ;	Watchdog Timer Postscale Select bits
  4653                           ;	WDTPS = 512, 1:512
  4654   300003                     	org	3145731
  4655   300003  12                 	db	18
  4656                           
  4657                           ; Padding undefined space
  4658   300004                     	org	3145732
  4659   300004  FF                 	db	255
  4660                           
  4661                           ;Config register CONFIG3H @ 0x300005
  4662                           ;	CCP2 MUX bit
  4663                           ;	CCP2MX = PORTC, CCP2 input/output is multiplexed with RC1
  4664                           ;	PORTB A/D Enable bit
  4665                           ;	PBADEN = OFF, PORTB<4:0> pins are configured as digital I/O on Reset
  4666                           ;	Low-Power Timer1 Oscillator Enable bit
  4667                           ;	LPT1OSC = OFF, Timer1 configured for higher power operation
  4668                           ;	MCLR Pin Enable bit
  4669                           ;	MCLRE = ON, MCLR pin enabled; RE3 input pin disabled
  4670   300005                     	org	3145733
  4671   300005  81                 	db	129
  4672                           
  4673                           ;Config register CONFIG4L @ 0x300006
  4674                           ;	Stack Full/Underflow Reset Enable bit
  4675                           ;	STVREN = ON, Stack full/underflow will cause Reset
  4676                           ;	Single-Supply ICSP Enable bit
  4677                           ;	LVP = OFF, Single-Supply ICSP disabled
  4678                           ;	Extended Instruction Set Enable bit
  4679                           ;	XINST = OFF, Instruction set extension and Indexed Addressing mode disabled (Legacy mo
      +                          de)
  4680                           ;	Background Debugger Enable bit
  4681                           ;	DEBUG = 0x1, unprogrammed default
  4682   300006                     	org	3145734
  4683   300006  81                 	db	129
  4684                           
  4685                           ; Padding undefined space
  4686   300007                     	org	3145735
  4687   300007  FF                 	db	255
  4688                           
  4689                           ;Config register CONFIG5L @ 0x300008
  4690                           ;	Code Protection bit
  4691                           ;	CP0 = OFF, Block 0 (000800-003FFFh) not code-protected
  4692                           ;	Code Protection bit
  4693                           ;	CP1 = OFF, Block 1 (004000-007FFFh) not code-protected
  4694                           ;	Code Protection bit
  4695                           ;	CP2 = OFF, Block 2 (008000-00BFFFh) not code-protected
  4696                           ;	Code Protection bit
  4697                           ;	CP3 = OFF, Block 3 (00C000-00FFFFh) not code-protected
  4698   300008                     	org	3145736
  4699   300008  0F                 	db	15
  4700                           
  4701                           ;Config register CONFIG5H @ 0x300009
  4702                           ;	Boot Block Code Protection bit
  4703                           ;	CPB = OFF, Boot block (000000-0007FFh) not code-protected
  4704                           ;	Data EEPROM Code Protection bit
  4705                           ;	CPD = OFF, Data EEPROM not code-protected
  4706   300009                     	org	3145737
  4707   300009  C0                 	db	192
  4708                           
  4709                           ;Config register CONFIG6L @ 0x30000A
  4710                           ;	Write Protection bit
  4711                           ;	WRT0 = OFF, Block 0 (000800-003FFFh) not write-protected
  4712                           ;	Write Protection bit
  4713                           ;	WRT1 = OFF, Block 1 (004000-007FFFh) not write-protected
  4714                           ;	Write Protection bit
  4715                           ;	WRT2 = OFF, Block 2 (008000-00BFFFh) not write-protected
  4716                           ;	Write Protection bit
  4717                           ;	WRT3 = OFF, Block 3 (00C000-00FFFFh) not write-protected
  4718   30000A                     	org	3145738
  4719   30000A  0F                 	db	15
  4720                           
  4721                           ;Config register CONFIG6H @ 0x30000B
  4722                           ;	Configuration Register Write Protection bit
  4723                           ;	WRTC = OFF, Configuration registers (300000-3000FFh) not write-protected
  4724                           ;	Boot Block Write Protection bit
  4725                           ;	WRTB = OFF, Boot Block (000000-0007FFh) not write-protected
  4726                           ;	Data EEPROM Write Protection bit
  4727                           ;	WRTD = OFF, Data EEPROM not write-protected
  4728   30000B                     	org	3145739
  4729   30000B  E0                 	db	224
  4730                           
  4731                           ;Config register CONFIG7L @ 0x30000C
  4732                           ;	Table Read Protection bit
  4733                           ;	EBTR0 = OFF, Block 0 (000800-003FFFh) not protected from table reads executed in other
      +                           blocks
  4734                           ;	Table Read Protection bit
  4735                           ;	EBTR1 = OFF, Block 1 (004000-007FFFh) not protected from table reads executed in other
      +                           blocks
  4736                           ;	Table Read Protection bit
  4737                           ;	EBTR2 = OFF, Block 2 (008000-00BFFFh) not protected from table reads executed in other
      +                           blocks
  4738                           ;	Table Read Protection bit
  4739                           ;	EBTR3 = OFF, Block 3 (00C000-00FFFFh) not protected from table reads executed in other
      +                           blocks
  4740   30000C                     	org	3145740
  4741   30000C  0F                 	db	15
  4742                           
  4743                           ;Config register CONFIG7H @ 0x30000D
  4744                           ;	Boot Block Table Read Protection bit
  4745                           ;	EBTRB = OFF, Boot Block (000000-0007FFh) not protected from table reads executed in ot
      +                          her blocks
  4746   30000D                     	org	3145741
  4747   30000D  40                 	db	64
  4748                           tosu	equ	0xFFF
  4749                           tosh	equ	0xFFE
  4750                           tosl	equ	0xFFD
  4751                           stkptr	equ	0xFFC
  4752                           pclatu	equ	0xFFB
  4753                           pclath	equ	0xFFA
  4754                           pcl	equ	0xFF9
  4755                           tblptru	equ	0xFF8
  4756                           tblptrh	equ	0xFF7
  4757                           tblptrl	equ	0xFF6
  4758                           tablat	equ	0xFF5
  4759                           prodh	equ	0xFF4
  4760                           prodl	equ	0xFF3
  4761                           indf0	equ	0xFEF
  4762                           postinc0	equ	0xFEE
  4763                           postdec0	equ	0xFED
  4764                           preinc0	equ	0xFEC
  4765                           plusw0	equ	0xFEB
  4766                           fsr0h	equ	0xFEA
  4767                           fsr0l	equ	0xFE9
  4768                           wreg	equ	0xFE8
  4769                           indf1	equ	0xFE7
  4770                           postinc1	equ	0xFE6
  4771                           postdec1	equ	0xFE5
  4772                           preinc1	equ	0xFE4
  4773                           plusw1	equ	0xFE3
  4774                           fsr1h	equ	0xFE2
  4775                           fsr1l	equ	0xFE1
  4776                           bsr	equ	0xFE0
  4777                           indf2	equ	0xFDF
  4778                           postinc2	equ	0xFDE
  4779                           postdec2	equ	0xFDD
  4780                           preinc2	equ	0xFDC
  4781                           plusw2	equ	0xFDB
  4782                           fsr2h	equ	0xFDA
  4783                           fsr2l	equ	0xFD9
  4784                           status	equ	0xFD8

Data Sizes:
    Strings     17
    Constant    16
    Data        39
    BSS         61
    Persistent  0
    Stack       0

Auto Spaces:
    Space          Size  Autos    Used
    COMRAM          126     71     124
    BANK0           128      2      49
    BANK1           256      0       0
    BANK2           256      0       0
    BANK3           256      0       0
    BANK4           256      0       0
    BANK5           256      0       0
    BANK6           256      0       0
    BANK7           256      0       0
    BANK8           256      0       0
    BANK9           256      0       0
    BANK10          256      0       0
    BANK11          256      0       0
    BANK12          256      0       0
    BANK13          256      0       0
    BANK14          256      0       0
    BANK15          128      0       0

Pointer List with Targets:

    ADC_CONVERSION_RESULT@adc$ADC_InterruptHandler	PTR FTN()void  size(2) Largest target is 0

    ADC_Init@adc$ADC_InterruptHandler	PTR FTN()void  size(2) Largest target is 0

    ADC_InterruptHandler	PTR FTN()void  size(2) Largest target is 1
		 -> NULL(), 

    ADC_SELECT_RESULT_FORMAT@adc$ADC_InterruptHandler	PTR FTN()void  size(2) Largest target is 0

    ADC_SELECT_VOLTAGE_REFERENCE@adc$ADC_InterruptHandler	PTR FTN()void  size(2) Largest target is 0

    CCP1_InterruptHandler	PTR FTN()void  size(2) Largest target is 1
		 -> NULL(), 

    CCP2_InterruptHandler	PTR FTN()void  size(2) Largest target is 1
		 -> NULL(), 

    CCP_Capture_Mode_Config@_ccp_obj$CCP1_InterruptHandler	PTR FTN()void  size(2) Largest target is 0

    CCP_Capture_Mode_Config@_ccp_obj$CCP2_InterruptHandler	PTR FTN()void  size(2) Largest target is 0

    CCP_Compare_Mode_Config@_ccp_obj$CCP1_InterruptHandler	PTR FTN()void  size(2) Largest target is 0

    CCP_Compare_Mode_Config@_ccp_obj$CCP2_InterruptHandler	PTR FTN()void  size(2) Largest target is 0

    CCP_Compare_Mode_Set_Value@_ccp_obj$CCP1_InterruptHandler	PTR FTN()void  size(2) Largest target is 0

    CCP_Compare_Mode_Set_Value@_ccp_obj$CCP2_InterruptHandler	PTR FTN()void  size(2) Largest target is 0

    CCP_DeInit@_ccp_obj$CCP1_InterruptHandler	PTR FTN()void  size(2) Largest target is 0

    CCP_DeInit@_ccp_obj$CCP2_InterruptHandler	PTR FTN()void  size(2) Largest target is 0

    CCP_Init@_ccp_obj$CCP1_InterruptHandler	PTR FTN()void  size(2) Largest target is 0

    CCP_Init@_ccp_obj$CCP2_InterruptHandler	PTR FTN()void  size(2) Largest target is 0

    CCP_Interrupt_Config@_ccp_obj$CCP1_InterruptHandler	PTR FTN()void  size(2) Largest target is 0

    CCP_Interrupt_Config@_ccp_obj$CCP2_InterruptHandler	PTR FTN()void  size(2) Largest target is 0

    CCP_Mode_Timer_Select@_ccp_obj$CCP1_InterruptHandler	PTR FTN()void  size(2) Largest target is 0

    CCP_Mode_Timer_Select@_ccp_obj$CCP2_InterruptHandler	PTR FTN()void  size(2) Largest target is 0

    CCP_PWM_Set_Duty@_ccp_obj$CCP1_InterruptHandler	PTR FTN()void  size(2) Largest target is 0

    CCP_PWM_Set_Duty@_ccp_obj$CCP2_InterruptHandler	PTR FTN()void  size(2) Largest target is 0

    CCP_PWM_Start@_ccp_obj$CCP1_InterruptHandler	PTR FTN()void  size(2) Largest target is 0

    CCP_PWM_Start@_ccp_obj$CCP2_InterruptHandler	PTR FTN()void  size(2) Largest target is 0

    CCP_PWM_Stop@_ccp_obj$CCP1_InterruptHandler	PTR FTN()void  size(2) Largest target is 0

    CCP_PWM_Stop@_ccp_obj$CCP2_InterruptHandler	PTR FTN()void  size(2) Largest target is 0

    I2C_Master_Clock_CFG@mssp	PTR const struct . size(1) Largest target is 5
		 -> i2c_obj(BANK0[5]), 

    I2C_Slave_Clock_CFG@mssp	PTR const struct . size(1) Largest target is 5
		 -> i2c_obj(BANK0[5]), 

    INT0_InterruptHandler	PTR FTN()void  size(2) Largest target is 1
		 -> NULL(), 

    INT1_InterruptHandler	PTR FTN()void  size(2) Largest target is 1
		 -> NULL(), 

    INT2_InterruptHandler	PTR FTN()void  size(2) Largest target is 1
		 -> NULL(), 

    Interrupt_INTx_Clear_Flag@int_obj$Interrupt_CallBack	PTR FTN()void  size(2) Largest target is 0

    Interrupt_INTx_Disable@int_obj$Interrupt_CallBack	PTR FTN()void  size(2) Largest target is 0

    Interrupt_INTx_Edge_Init@int_obj$Interrupt_CallBack	PTR FTN()void  size(2) Largest target is 0

    Interrupt_INTx_Enable@int_obj$Interrupt_CallBack	PTR FTN()void  size(2) Largest target is 0

    Interrupt_INTx_Handler@int_obj$Interrupt_CallBack	PTR FTN()void  size(2) Largest target is 0

    Interrupt_INTx_Pin_Init@int_obj$Interrupt_CallBack	PTR FTN()void  size(2) Largest target is 0

    Interrupt_RBx_Init@int_obj$Interrupt_CallBack_HIGH	PTR FTN()void  size(2) Largest target is 0

    Interrupt_RBx_Init@int_obj$Interrupt_CallBack_LOW	PTR FTN()void  size(2) Largest target is 0

    lat_reg	PTR volatile unsigned char [5] size(2) Largest target is 1
		 -> LATA(BITBIGSFRll[1]), LATB(BITBIGSFRlh[1]), LATC(BITBIGSFRlh[1]), LATD(BITBIGSFRlh[1]), 
		 -> LATE(BITBIGSFRlh[1]), 

    MSSP_I2C_Init@mssp	PTR const struct . size(1) Largest target is 5
		 -> i2c_obj(BANK0[5]), 

    MSSP_I2C_Master_Send_Start@mssp	PTR const struct . size(1) Largest target is 5
		 -> i2c_obj(BANK0[5]), 

    MSSP_I2C_Master_Send_Stop@mssp	PTR const struct . size(1) Largest target is 5
		 -> i2c_obj(BANK0[5]), 

    MSSP_I2C_Master_Write@_ack	PTR unsigned char  size(1) Largest target is 1
		 -> ack(COMRAM[1]), 

    MSSP_I2C_Master_Write@mssp	PTR const struct . size(1) Largest target is 5
		 -> i2c_obj(BANK0[5]), 

    port_reg	PTR volatile unsigned char [5] size(2) Largest target is 1
		 -> PORTA(BITBIGSFRll[1]), PORTB(BITBIGSFRll[1]), PORTC(BITBIGSFRll[1]), PORTD(BITBIGSFRll[1]), 
		 -> PORTE(BITBIGSFRll[1]), 

    RB4_InterruptHandler_HIGH	PTR FTN()void  size(2) Largest target is 1
		 -> NULL(), 

    RB4_InterruptHandler_LOW	PTR FTN()void  size(2) Largest target is 1
		 -> NULL(), 

    RB5_InterruptHandler_HIGH	PTR FTN()void  size(2) Largest target is 1
		 -> NULL(), 

    RB5_InterruptHandler_LOW	PTR FTN()void  size(2) Largest target is 1
		 -> NULL(), 

    RB6_InterruptHandler_HIGH	PTR FTN()void  size(2) Largest target is 1
		 -> NULL(), 

    RB6_InterruptHandler_LOW	PTR FTN()void  size(2) Largest target is 1
		 -> NULL(), 

    RB7_InterruptHandler_HIGH	PTR FTN()void  size(2) Largest target is 1
		 -> NULL(), 

    RB7_InterruptHandler_LOW	PTR FTN()void  size(2) Largest target is 1
		 -> NULL(), 

    S1176$CCP1_InterruptHandler	PTR FTN()void  size(2) Largest target is 0

    S1176$CCP2_InterruptHandler	PTR FTN()void  size(2) Largest target is 0

    S2541$Interrupt_CallBack	PTR FTN()void  size(2) Largest target is 0

    S2579$Interrupt_CallBack_HIGH	PTR FTN()void  size(2) Largest target is 0

    S2579$Interrupt_CallBack_LOW	PTR FTN()void  size(2) Largest target is 0

    S2825$Interrupt_CallBack	PTR FTN()void  size(2) Largest target is 0

    S3009$Interrupt_CallBack	PTR FTN()void  size(2) Largest target is 0

    S3138$Interrupt_CallBack	PTR FTN()void  size(2) Largest target is 0

    S3342$FERR_InterruptHandler	PTR FTN()void  size(2) Largest target is 0

    S3342$OERR_InterruptHandler	PTR FTN()void  size(2) Largest target is 0

    S3342$RX_InterruptHandler	PTR FTN()void  size(2) Largest target is 0

    S3342$TX_InterruptHandler	PTR FTN()void  size(2) Largest target is 0

    S3766$Interrupt_CallBack	PTR FTN()void  size(2) Largest target is 0

    S794$ADC_InterruptHandler	PTR FTN()void  size(2) Largest target is 0

    sp__memset	PTR void  size(2) Largest target is 0

    Timer0_BIT_SIZE@timer$Interrupt_CallBack	PTR FTN()void  size(2) Largest target is 0

    Timer0_Counter_Timer_MODE@timer$Interrupt_CallBack	PTR FTN()void  size(2) Largest target is 0

    Timer0_EDGE_CONFIG@timer$Interrupt_CallBack	PTR FTN()void  size(2) Largest target is 0

    Timer0_Init@timer$Interrupt_CallBack	PTR FTN()void  size(2) Largest target is 0

    Timer0_Prescaler@timer$Interrupt_CallBack	PTR FTN()void  size(2) Largest target is 0

    Timer1_Counter_Timer_MODE@timer$Interrupt_CallBack	PTR FTN()void  size(2) Largest target is 0

    Timer1_Init@timer$Interrupt_CallBack	PTR FTN()void  size(2) Largest target is 0

    Timer2_Init@timer$Interrupt_CallBack	PTR FTN()void  size(2) Largest target is 0

    Timer3_BIT_SIZE@timer$Interrupt_CallBack	PTR FTN()void  size(2) Largest target is 0

    Timer3_Counter_Timer_MODE@timer$Interrupt_CallBack	PTR FTN()void  size(2) Largest target is 0

    Timer3_Init@timer$Interrupt_CallBack	PTR FTN()void  size(2) Largest target is 0

    TMR0_InterruptHandler	PTR FTN()void  size(2) Largest target is 1
		 -> NULL(), 

    TMR1_InterruptHandler	PTR FTN()void  size(2) Largest target is 1
		 -> NULL(), 

    TMR2_InterruptHandler	PTR FTN()void  size(2) Largest target is 1
		 -> NULL(), 

    TMR3_InterruptHandler	PTR FTN()void  size(2) Largest target is 1
		 -> NULL(), 

    tris_reg	PTR volatile unsigned char [5] size(2) Largest target is 1
		 -> TRISA(BITBIGSFRll[1]), TRISB(BITBIGSFRhl[1]), TRISC(BITBIGSFRhl[1]), TRISD(BITBIGSFRhl[1]), 
		 -> TRISE(BITBIGSFRhl[1]), 

    USART_Baud_Rate_Calculation@usart$FERR_InterruptHandler	PTR FTN()void  size(2) Largest target is 0

    USART_Baud_Rate_Calculation@usart$OERR_InterruptHandler	PTR FTN()void  size(2) Largest target is 0

    USART_Baud_Rate_Calculation@usart$RX_InterruptHandler	PTR FTN()void  size(2) Largest target is 0

    USART_Baud_Rate_Calculation@usart$TX_InterruptHandler	PTR FTN()void  size(2) Largest target is 0

    USART_FRROR_InterruptHandler	PTR FTN()void  size(2) Largest target is 1
		 -> NULL(), 

    USART_ORROR_InterruptHandler	PTR FTN()void  size(2) Largest target is 1
		 -> NULL(), 

    USART_RX_INIT@usart$FERR_InterruptHandler	PTR FTN()void  size(2) Largest target is 0

    USART_RX_INIT@usart$OERR_InterruptHandler	PTR FTN()void  size(2) Largest target is 0

    USART_RX_INIT@usart$RX_InterruptHandler	PTR FTN()void  size(2) Largest target is 0

    USART_RX_INIT@usart$TX_InterruptHandler	PTR FTN()void  size(2) Largest target is 0

    USART_RX_InterruptHandler	PTR FTN()void  size(2) Largest target is 1
		 -> NULL(), 

    USART_TX_INIT@usart$FERR_InterruptHandler	PTR FTN()void  size(2) Largest target is 0

    USART_TX_INIT@usart$OERR_InterruptHandler	PTR FTN()void  size(2) Largest target is 0

    USART_TX_INIT@usart$RX_InterruptHandler	PTR FTN()void  size(2) Largest target is 0

    USART_TX_INIT@usart$TX_InterruptHandler	PTR FTN()void  size(2) Largest target is 0

    USART_TX_InterruptHandler	PTR FTN()void  size(2) Largest target is 1
		 -> NULL(), 

    vfprintf$0	PTR struct _IO_FILE size(2) Largest target is 0
		 -> NULL(NULL[0]), 

    vfprintf$1	PTR const unsigned char  size(1) Largest target is 11
		 -> STR_1(CODE[6]), STR_10(CODE[11]), STR_11(CODE[11]), STR_12(CODE[11]), 
		 -> STR_13(CODE[11]), STR_2(CODE[6]), STR_3(CODE[6]), STR_4(CODE[6]), 
		 -> STR_5(CODE[11]), STR_6(CODE[11]), STR_7(CODE[11]), STR_8(CODE[11]), 
		 -> STR_9(CODE[11]), 

    vfprintf$2	PTR PTR void  size(1) Largest target is 1
		 -> printf@ap(COMRAM[1]), 


Critical Paths under _main in COMRAM

    _main->_MSSP_I2C_Init
    _mssp_i2c_send_1_byte->_MSSP_I2C_Master_Write
    _MSSP_I2C_Init->_I2C_Master_Clock_CFG
    _I2C_Master_Clock_CFG->___fltol
    ___fltol->___fladd
    ___fldiv->___xxtofl
    ___fladd->___fldiv

Critical Paths under _InterruptManagerLow in COMRAM

    _InterruptManagerLow->_RB4_ISR
    _InterruptManagerLow->_RB5_ISR
    _InterruptManagerLow->_RB6_ISR
    _InterruptManagerLow->_RB7_ISR

Critical Paths under _main in BANK0

    None.

Critical Paths under _InterruptManagerLow in BANK0

    None.

Critical Paths under _main in BANK1

    None.

Critical Paths under _InterruptManagerLow in BANK1

    None.

Critical Paths under _main in BANK2

    None.

Critical Paths under _InterruptManagerLow in BANK2

    None.

Critical Paths under _main in BANK3

    None.

Critical Paths under _InterruptManagerLow in BANK3

    None.

Critical Paths under _main in BANK4

    None.

Critical Paths under _InterruptManagerLow in BANK4

    None.

Critical Paths under _main in BANK5

    None.

Critical Paths under _InterruptManagerLow in BANK5

    None.

Critical Paths under _main in BANK6

    None.

Critical Paths under _InterruptManagerLow in BANK6

    None.

Critical Paths under _main in BANK7

    None.

Critical Paths under _InterruptManagerLow in BANK7

    None.

Critical Paths under _main in BANK8

    None.

Critical Paths under _InterruptManagerLow in BANK8

    None.

Critical Paths under _main in BANK9

    None.

Critical Paths under _InterruptManagerLow in BANK9

    None.

Critical Paths under _main in BANK10

    None.

Critical Paths under _InterruptManagerLow in BANK10

    None.

Critical Paths under _main in BANK11

    None.

Critical Paths under _InterruptManagerLow in BANK11

    None.

Critical Paths under _main in BANK12

    None.

Critical Paths under _InterruptManagerLow in BANK12

    None.

Critical Paths under _main in BANK13

    None.

Critical Paths under _InterruptManagerLow in BANK13

    None.

Critical Paths under _main in BANK14

    None.

Critical Paths under _InterruptManagerLow in BANK14

    None.

Critical Paths under _main in BANK15

    None.

Critical Paths under _InterruptManagerLow in BANK15

    None.

Call Graph Tables:

 ---------------------------------------------------------------------------------
 (Depth) Function   	        Calls       Base Space   Used Autos Params    Refs
 ---------------------------------------------------------------------------------
 (0) _main                                                 3     3      0   10062
                                              0 BANK0      2     2      0
                      _MSSP_I2C_Init
                   _application_init
               _mssp_i2c_send_1_byte
 ---------------------------------------------------------------------------------
 (1) _mssp_i2c_send_1_byte                                 4     0      4    1420
                                              5 COMRAM     4     0      4
         _MSSP_I2C_Master_Send_Start
          _MSSP_I2C_Master_Send_Stop
              _MSSP_I2C_Master_Write
 ---------------------------------------------------------------------------------
 (2) _MSSP_I2C_Master_Write                                5     1      4     552
                                              1 COMRAM     4     0      4
 ---------------------------------------------------------------------------------
 (2) _MSSP_I2C_Master_Send_Stop                            2     1      1     108
                                              1 COMRAM     1     0      1
 ---------------------------------------------------------------------------------
 (2) _MSSP_I2C_Master_Send_Start                           2     1      1     108
                                              1 COMRAM     1     0      1
 ---------------------------------------------------------------------------------
 (1) _application_init                                     1     1      0       2
                     _ECU_Layer_Init
 ---------------------------------------------------------------------------------
 (2) _ECU_Layer_Init                                       1     1      0       1
 ---------------------------------------------------------------------------------
 (1) _MSSP_I2C_Init                                        2     1      1    8634
                                             69 COMRAM     2     1      1
               _I2C_Master_Clock_CFG
                _I2C_Slave_Clock_CFG
             _MSSP_I2C_MODE_GPIO_CFG
 ---------------------------------------------------------------------------------
 (2) _MSSP_I2C_MODE_GPIO_CFG                               0     0      0       0
 ---------------------------------------------------------------------------------
 (2) _I2C_Slave_Clock_CFG                                  2     1      1      98
                                              1 COMRAM     2     1      1
 ---------------------------------------------------------------------------------
 (2) _I2C_Master_Clock_CFG                                 3     2      1    8172
                                             66 COMRAM     3     2      1
                            ___fladd
                            ___fldiv
                            ___fltol
                           ___xxtofl
 ---------------------------------------------------------------------------------
 (3) ___xxtofl                                            14    10      4     979
                                              1 COMRAM    14    10      4
 ---------------------------------------------------------------------------------
 (3) ___fltol                                             10     6      4     506
                                             56 COMRAM    10     6      4
                            ___fladd (ARG)
                            ___fldiv (ARG)
                           ___xxtofl (ARG)
 ---------------------------------------------------------------------------------
 (3) ___fldiv                                             25    17      8    3321
                                             15 COMRAM    25    17      8
                           ___xxtofl (ARG)
 ---------------------------------------------------------------------------------
 (3) ___fladd                                             16     8      8    3246
                                             40 COMRAM    16     8      8
                            ___fldiv (ARG)
                           ___xxtofl (ARG)
 ---------------------------------------------------------------------------------
 Estimated maximum stack depth 3
 ---------------------------------------------------------------------------------
 (Depth) Function   	        Calls       Base Space   Used Autos Params    Refs
 ---------------------------------------------------------------------------------
 (4) _InterruptManagerLow                                  0     0      0     120
                            _ADC_ISR
                           _CCP1_ISR
                           _CCP2_ISR
                        _I2C_BUS_ISR
                            _I2C_ISR
                           _INT0_ISR
                           _INT1_ISR
                           _INT2_ISR
                            _RB4_ISR
                            _RB5_ISR
                            _RB6_ISR
                            _RB7_ISR
                           _TMR0_ISR
                           _TMR1_ISR
                           _TMR2_ISR
                           _TMR3_ISR
                       _USART_RX_ISR
                       _USART_TX_ISR
 ---------------------------------------------------------------------------------
 (5) _USART_TX_ISR                                         0     0      0       0
 ---------------------------------------------------------------------------------
 (5) _USART_RX_ISR                                         0     0      0       0
 ---------------------------------------------------------------------------------
 (5) _TMR3_ISR                                             0     0      0       0
 ---------------------------------------------------------------------------------
 (5) _TMR2_ISR                                             0     0      0       0
 ---------------------------------------------------------------------------------
 (5) _TMR1_ISR                                             0     0      0       0
 ---------------------------------------------------------------------------------
 (5) _TMR0_ISR                                             0     0      0       0
 ---------------------------------------------------------------------------------
 (5) _RB7_ISR                                              1     1      0      30
                                              0 COMRAM     1     1      0
 ---------------------------------------------------------------------------------
 (5) _RB6_ISR                                              1     1      0      30
                                              0 COMRAM     1     1      0
 ---------------------------------------------------------------------------------
 (5) _RB5_ISR                                              1     1      0      30
                                              0 COMRAM     1     1      0
 ---------------------------------------------------------------------------------
 (5) _RB4_ISR                                              1     1      0      30
                                              0 COMRAM     1     1      0
 ---------------------------------------------------------------------------------
 (5) _INT2_ISR                                             0     0      0       0
 ---------------------------------------------------------------------------------
 (5) _INT1_ISR                                             0     0      0       0
 ---------------------------------------------------------------------------------
 (5) _INT0_ISR                                             0     0      0       0
 ---------------------------------------------------------------------------------
 (5) _I2C_ISR                                              0     0      0       0
 ---------------------------------------------------------------------------------
 (5) _I2C_BUS_ISR                                          0     0      0       0
 ---------------------------------------------------------------------------------
 (5) _CCP2_ISR                                             0     0      0       0
 ---------------------------------------------------------------------------------
 (5) _CCP1_ISR                                             0     0      0       0
 ---------------------------------------------------------------------------------
 (5) _ADC_ISR                                              0     0      0       0
 ---------------------------------------------------------------------------------
 Estimated maximum stack depth 5
 ---------------------------------------------------------------------------------

 Call Graph Graphs:

 _main (ROOT)
   _MSSP_I2C_Init
     _I2C_Master_Clock_CFG
       ___fladd
         ___fldiv (ARG)
           ___xxtofl (ARG)
         ___xxtofl (ARG)
       ___fldiv
       ___fltol
         ___fladd (ARG)
         ___fldiv (ARG)
         ___xxtofl (ARG)
       ___xxtofl
     _I2C_Slave_Clock_CFG
     _MSSP_I2C_MODE_GPIO_CFG
   _application_init
     _ECU_Layer_Init
   _mssp_i2c_send_1_byte
     _MSSP_I2C_Master_Send_Start
     _MSSP_I2C_Master_Send_Stop
     _MSSP_I2C_Master_Write

 _InterruptManagerLow (ROOT)
   _ADC_ISR
   _CCP1_ISR
   _CCP2_ISR
   _I2C_BUS_ISR
   _I2C_ISR
   _INT0_ISR
   _INT1_ISR
   _INT2_ISR
   _RB4_ISR
   _RB5_ISR
   _RB6_ISR
   _RB7_ISR
   _TMR0_ISR
   _TMR1_ISR
   _TMR2_ISR
   _TMR3_ISR
   _USART_RX_ISR
   _USART_TX_ISR

 Address spaces:
Name               Size   Autos  Total    Cost      Usage
BIGRAM             F7F      0       0      47        0.0%
EEDATA             400      0       0       0        0.0%
BITBANK14          100      0       0      33        0.0%
BANK14             100      0       0      34        0.0%
BITBANK13          100      0       0      31        0.0%
BANK13             100      0       0      32        0.0%
BITBANK12          100      0       0      29        0.0%
BANK12             100      0       0      30        0.0%
BITBANK11          100      0       0      27        0.0%
BANK11             100      0       0      28        0.0%
BITBANK10          100      0       0      25        0.0%
BANK10             100      0       0      26        0.0%
BITBANK9           100      0       0      23        0.0%
BANK9              100      0       0      24        0.0%
BITBANK8           100      0       0      21        0.0%
BANK8              100      0       0      22        0.0%
BITBANK7           100      0       0      18        0.0%
BANK7              100      0       0      19        0.0%
BITBANK6           100      0       0      16        0.0%
BANK6              100      0       0      17        0.0%
BITBANK5           100      0       0      14        0.0%
BANK5              100      0       0      15        0.0%
BITBANK4           100      0       0      12        0.0%
BANK4              100      0       0      13        0.0%
BITBANK3           100      0       0      10        0.0%
BANK3              100      0       0      11        0.0%
BITBANK2           100      0       0       8        0.0%
BANK2              100      0       0       9        0.0%
BITBANK1           100      0       0       6        0.0%
BANK1              100      0       0       7        0.0%
BITBANK15           80      0       0      35        0.0%
BANK15              80      0       0      36        0.0%
BITBANK0            80      0       0       4        0.0%
BANK0               80      2      31       5       38.3%
BITCOMRAM           7E      0       0       0        0.0%
COMRAM              7E     47      7C       1       98.4%
BITBIGSFRhhhlhh     18      0       0      38        0.0%
BITBIGSFRhhhh        D      0       0      37        0.0%
BITBIGSFRhl          6      0       0      44        0.0%
BITBIGSFRhhhlhh      5      0       0      39        0.0%
BITBIGSFRhhllll      4      0       0      41        0.0%
BITBIGSFRhhllll      4      0       0      42        0.0%
BITBIGSFRlh          4      0       0      45        0.0%
BITBIGSFRll          4      0       0      46        0.0%
BITBIGSFRhhllll      1      0       0      40        0.0%
BITBIGSFRhhllll      1      0       0      43        0.0%
BIGSFR               0      0       0     200        0.0%
BITSFR               0      0       0     200        0.0%
SFR                  0      0       0     200        0.0%
STACK                0      0       0       2        0.0%
NULL                 0      0       0       0        0.0%
ABS                  0      0      AD      20        0.0%
DATA                 0      0      AD       3        0.0%
CODE                 0      0       0       0        0.0%


Microchip Technology PIC18 Macro Assembler V2.46 build 20240104201356 
Symbol Table                                                                                   Sun Dec 29 19:04:00 2024

                      ___fldiv@aexp 0028                        ___fldiv@bexp 0027  
                      ___fldiv@sign 0020                         _SSPSTATbits 0FC7  
     mssp_i2c_send_1_byte@slave_add 0006               ??_InterruptManagerLow 0002  
                               l335 2428                                 l811 1E34  
                               l817 1EAA                                 l841 22CC  
                               l826 1F3A                                 l842 22E0  
                               l843 22F2                                 l829 1F3E  
                               l837 22BC                                 l861 2280  
                               l846 22F2                                 l862 2294  
                               l839 22BE                                 l863 22A6  
                               l871 2226                                 l857 2270  
                               l873 2234                                 l866 22A6  
                               l859 2272                                 l876 225A  
                               l893 2406                                 l869 2222  
                               l896 21AA                                 l899 23CE  
                               _PR2 0FCB                                 _ack 0078  
                   __end_of_I2C_ISR 242E           _RB5_InterruptHandler_HIGH 005A  
                   __end_of_ADC_ISR 2428                ?_I2C_Slave_Clock_CFG 0002  
                               wreg 0FE8                     __end_of_RB4_ISR 23BA  
                   __end_of_RB5_ISR 23A0                     __end_of_RB6_ISR 2386  
                   __end_of_RB7_ISR 236C                        ___fltol@exp1 0042  
                              l2211 1AC2                                l2220 1B08  
                              l2222 1B80                                l2214 1A86  
                              l2223 1B6E                                l2209 1C62  
                              l2155 1212                                l2172 132C  
                              l2164 14E2                                l2156 1200  
                              l2181 13FC                                l2157 11C6  
                              l1613 232C                                l2182 13EA  
                              l1624 2400                                l2282 1CBA  
                              l2285 1E16                                l2296 1DAE  
                              l2289 1D52                                l1924 2044  
                              l5301 1124                                l6021 2310  
                              l5311 1138                                l5303 1128  
                              l6023 23FC                                l5401 137E  
                              l5321 114C                                l5313 113C  
                              l5305 112C                                l6025 23FC  
                              l6017 22F4                                l5411 13AA  
                              l5403 1380                                l5331 1160  
                              l5323 1150                                l5315 1140  
                              l5307 1130                                l6019 22FC  
                              l5421 13E2                                l5405 138E  
                              l5413 13AC                                l5341 11BE  
                              l5325 1154                                l5317 1144  
                              l5309 1134                                l5333 1164  
                              l5261 1040                                l5501 19C4  
                              l5431 1460                                l5407 1396  
                              l5415 13BA                                l5351 11F4  
                              l5343 11D4                                l5335 1168  
                              l5327 1158                                l5319 1148  
                              l5263 1050                                l5271 107A  
                              l5255 1024                                l5511 19EC  
                              l5503 19C8                                l5441 14A6  
                              l5425 140C                                l5433 1462  
                              l5417 13BE                                l5409 139A  
                              l5361 1244                                l5353 11FE  
                              l5345 11E0                                l5337 1192  
                              l5329 115C                                l5281 10AA  
                              l5273 108A                                l5265 1060  
                              l5257 1030                                l5521 1A3A  
                              l5601 1F6A                                l5451 14D0  
                              l5443 14B4                                l5435 1472  
                              l5427 1418                                l5419 13CC  
                              l5371 1280                                l5363 1254  
                              l5355 1220                                l5347 11E4  
                              l5339 11AE                                l5291 10EA  
                              l5283 10B8                                l5275 1090  
                              l5267 1070                                l5259 103E  
                              l5531 1A84                                l5523 1A4A  
                              l5515 1A00                                l5507 19DC  
                              l5611 1FB8                                l5603 1F94  
                              l5453 14D2                                l5445 14BA  
                              l5437 1482                                l5429 1426  
                              l5381 12C6                                l5373 128E  
                              l5365 1262                                l5357 1230  
                              l5349 11F2                                l5293 10EC  
                              l5285 10BA                                l5277 10A2  
                              l5269 1072                                l5541 1AD2  
                              l5533 1A90                                l5525 1A52  
                              l5517 1A1A                                l5509 19EC  
                              l5461 18E4                                l5621 1FE4  
                              l5605 1F96                                l7141 2066  
                              l7133 2046                                l5447 14BC  
                              l5439 14A2                                l5391 1342  
                              l5383 12FA                                l5375 1290  
                              l5367 1270                                l5287 10CA  
                              l5295 10F4                                l5279 10A4  
                              l5543 1AE8                                l5551 1B18  
                              l5535 1AAE                                l5527 1A62  
                              l5519 1A2A                                l5471 1918  
                              l5463 18E6                                l5631 2014  
                              l5607 1FA6                                l7151 20DC  
                              l7143 2080                                l7135 2046  
                              l5449 14C2                                l5393 1352  
                              l5385 12FC                                l5377 129A  
                              l5369 127C                                l5297 1104  
                              l5289 10DA                                l5553 1B26  
                              l5545 1AEE                                l5537 1AB0  
                              l5529 1A76                                l5481 194A  
                              l5465 18F6                                l5473 1920  
                              l5457 18CA                                l5633 2024  
                              l5617 1FD0                                l5609 1FAA  
                              l5641 1C76                                l5801 23BA  
                              l7153 20F0                                l7145 2094  
                              l7137 204A                                l5387 130C  
                              l5379 12A0                                l5299 1116  
                              l5563 1B90                                l5571 1BD8  
                              l5555 1B2A                                l5547 1AF8  
                              l5539 1AC0                                l5491 197E  
                              l5483 194C                                l5475 1930  
                              l5467 1906                                l5459 18D6  
                              l5635 2034                                l5627 1FF8  
                              l5619 1FDA                                l5651 1CF4  
                              l5643 1C84                                l5803 2402  
                              l7147 20AE                                l7139 2052  
                              l5397 1366                                l5389 131C  
                              l5581 1C42                                l5573 1BF2  
                              l5565 1B9C                                l5557 1B38  
                              l5549 1B06                                l5485 195C  
                              l5493 1986                                l5477 1936  
                              l5469 1916                                l5629 2004  
                              l5661 1D48                                l5653 1CFC  
                              l5645 1CCA                                l5805 22A8  
                              l5813 225C                                l5821 220E  
                              l7149 20C2                                l5399 1370  
                              l5583 1C50                                l5575 1C08  
                              l5567 1BAA                                l5559 1B66  
                              l5495 1996                                l5487 196C  
                              l5479 193C                                l5671 1DBE  
                              l5663 1D84                                l5655 1D08  
                              l5647 1CE0                                l5639 1C66  
                              l5807 22B8                                l5815 226C  
                              l5823 221E                                l5585 1C56  
                              l5577 1C22                                l5569 1BD4  
                              l5497 19AC                                l5489 197C  
                              l5681 1E06                                l5673 1DC2  
                              l5665 1D90                                l5657 1D3A  
                              l5809 22DC                                l5817 2290  
                              l5825 2244                                l5587 1C58  
                              l5579 1C3E                                l5499 19BC  
                              l5595 1F40                                l5675 1DE6  
                              l5667 1D9E                                l5659 1D3C  
                              l5827 2250                                l5597 1F56  
                              l5677 1DF6                                l5669 1DBC  
                              l5941 1E18                                l5679 1E04  
                              l5951 1E72                                l5943 1E2C  
                              l5961 1EBE                                l5953 1E8A  
                              l5945 1E36                                l5971 1F00  
                              l5955 1E90                                l5963 1EC6  
                              l5947 1E4E                                l5795 2428  
                              l5797 2112                                l5973 1F02  
                              l5965 1ECA                                l5957 1EA8  
                              l5949 1E5A                                l5981 1F3C  
                              l5799 2126                                l5975 1F1A  
                              l5967 1EE2                                l5959 1EB0  
                              l5977 1F20                                l5969 1EE8  
                              l5979 1F38                                STR_1 101C  
                              STR_5 1011                                _LATA 0F89  
                              _LATB 0F8A                                _LATC 0F8B  
                              _LATD 0F8C                                _LATE 0F8D  
                              u4100 10DA                                u4101 10D6  
                              u4110 1116                                u4111 1112  
                              u4200 1230                                u4120 1124  
                              u4040 103E                                u5000 226C  
                              u4201 122C                                u4121 1120  
                              u4041 103A                                u5001 2268  
                              u4210 1262                                u4130 1192  
                              u4050 1050                                u5010 2280  
                              u4211 125E                                u4131 118E  
                              u4051 104C                                u5011 227C  
                              u4300 13AA                                u4220 1270  
                              u4140 11AA                                u4060 1060  
                              u5020 2290                                u4301 13A6  
                              u4221 126C                                u4141 11A4  
                              u4061 105C                                u5021 228C  
                              u4310 13BA                                u4230 128E  
                              u4150 11AC                                u4070 10A2  
                              u5030 22A2                                u4311 13B6  
                              u4231 128A                                u4071 109E  
                              u5031 229E                                u4400 14A2  
                              u4320 13CC                                u4240 12C6  
                              u4160 11D4                                u4080 10B8  
                              u5200 1E2C                                u5040 221E  
                              u4401 149E                                u4321 13C8  
                              u4241 12C2                                u4161 11D0  
                              u4081 10B4                                u5201 1E28  
                              u5041 221A                                u4410 14B4  
                              u4330 13E2                                u4250 130C  
                              u4170 11F2                                u4090 10CA  
                              u5210 1E4E                                u5050 2234  
                              u4411 14B0                                u4331 13DE  
                              u4251 1308                                u4171 11EE  
                              u4091 10C6                                u5211 1E4A  
                              u5051 2230                                u4420 14D0  
                              u4340 13F8                                u4260 1342  
                              u4180 1212                                u4500 19EC  
                              u5220 1E72                                u5060 2244  
                              u4421 14CC                                u4341 13F4  
                              u4261 133E                                u4181 120E  
                              u4501 19E8                                u5221 1E6E  
                              u5061 2240                                u4350 140C  
                              u4270 1352                                u4190 1220  
                              u4510 1A62                                u4430 18E4  
                              u5230 1E8A                                u4351 1408  
                              u4271 134E                                u4191 121C  
                              u4511 1A5E                                u4431 18E0  
                              u5231 1E86                                u4360 1426  
                              u4280 137E                                u4600 1B7C  
                              u4520 1A84                                u4440 18F6  
                              u5240 1EA8                                u4361 1422  
                              u4281 137A                                u4601 1B78  
                              u4521 1A80                                u4441 18F2  
                              u5241 1EA4                                u4370 1460  
                              u4290 138E                                u4610 1B90  
                              u4530 1AAE                                u4450 1906  
                              u5250 1EE2                                u4371 145C  
                              u4291 138A                                u4611 1B8C  
                              u4531 1AAA                                u4451 1902  
                              u5251 1EDE                                u4380 1472  
                              u4620 1BAA                                u4540 1AD2  
                              u4460 194A                                u4700 1FF4  
                              u5260 1F00                                u4381 146E  
                              u4621 1BA6                                u4541 1ACE  
                              u4461 1946                                u4701 1FF0  
                              u5261 1EFC                                u4390 1482  
                              u4630 1BF2                                u4550 1AE8  
                              u4470 195C                                u4710 2014  
                              u5270 1F1A                                u4391 147E  
                              u4631 1BEE                                u4551 1AE4  
                              u4471 1958                                u4711 2010  
                              u5271 1F16                                u4640 1C22  
                              u4560 1B06                                u4480 196C  
                              u4720 2024                                u4800 1DBC  
                              u5280 1F38                                u4641 1C1E  
                              u4561 1B02                                u4481 1968  
                              u4721 2020                                u4801 1DB8  
                              u5281 1F34                                u4650 1C50  
                              u4570 1B26                                u4490 19AC  
                              u4810 1DF6                                u4730 1C76  
                              u4651 1C4C                                u4571 1B22  
                              u4491 19A8                                u4811 1DF2  
                              u4731 1C72                                u4580 1B38  
                              u4660 1F56                                u4820 1E04  
                              u4740 1C84                                u4581 1B34  
                              u4661 1F52                                u4821 1E00  
                              u4741 1C80                                u4590 1B66  
                              u4670 1F8A                                u4750 1CE0  
                              u4591 1B62                                u4751 1CDC  
                              u4680 1FB8                                u4760 1D36  
                              u4681 1FB4                                u4761 1D32  
                              u4690 1FCC                                u4770 1D80  
                              u4691 1FC8                                u4675 1F80  
                              u4771 1D7C                                u4780 1D9E  
                              u4781 1D9A                                u4790 1DAE  
                              u4791 1DAA                                u4960 22B8  
                              u4961 22B4                                u4970 22CC  
                              u4971 22C8                                u4980 22DC  
                              u4981 22D8                                u4990 22EE  
                              u4991 22EA                                u6907 20FC  
                              u6877 2072                                u6887 20A0  
                              u6897 20CE                                _TMR2 0FCC  
          _RB4_InterruptHandler_LOW 005C                                _main 2046  
                  __end_of_CCP1_ISR 2424                    __end_of_CCP2_ISR 2420  
          _RB7_InterruptHandler_LOW 0050                                fsr2h 0FDA  
                              indf2 0FDF                                fsr1l 0FE1  
                              fsr2l 0FD9                                btemp 007D  
                              start 000E                     ___fldiv@new_exp 0021  
                      ___param_bank 0000                    __end_of_INT0_ISR 241C  
                  __end_of_INT1_ISR 2418                    __end_of_INT2_ISR 2414  
                     ___fltol@sign1 0041                     __end_of___fladd 14E4  
                             ?_main 0001                     __end_of___fldiv 1C64  
                             _EEADR 0FA9                     __end_of___fltol 2046  
       ??_MSSP_I2C_Master_Send_Stop 0003                               i2l701 241E  
                             i2l482 2426                               i2l805 242C  
                             i2l808 242E                               i2l696 2422  
                             i2l971 1586                               i2l963 1506  
                             i2l981 1626                               i2l973 15A6  
                             i2l965 1526                               i2l991 16EA  
                             i2l983 1646                               i2l975 15C6  
                             i2l967 1546                               i2l993 172E  
                             i2l985 1666                               i2l977 15E6  
                             i2l969 1566                               i2l995 1772  
                             i2l987 1686                               i2l979 1606  
                             i2l997 17B6                               i2l989 16A6  
                             i2l999 17FA                               _RCREG 0FAE  
             ??_I2C_Slave_Clock_CFG 0003                               _TMR0H 0FD7  
                             _TMR1H 0FCF                               _TMR0L 0FD6  
                             _TMR3H 0FB3                               _TMR1L 0FCE  
                             _TMR3L 0FB2                               _SPBRG 0FAF  
                             _PORTA 0F80                               _PORTB 0F81  
                             _PORTC 0F82                               _PORTD 0F83  
                             _PORTE 0F84                               _TRISA 0F92  
                             _TRISB 0F93                               _TRISC 0F94  
                             _TRISD 0F95                               _TRISE 0F96  
                             _TXREG 0FAD                    __end_of_TMR0_ISR 23F4  
                  __end_of_TMR1_ISR 23E8                    __end_of_TMR2_ISR 23FC  
                  __end_of_TMR3_ISR 23DC                               tablat 0FF5  
                             ttemp5 007E                               ttemp6 0081  
                             ttemp7 0085                               status 0FD8  
                             wtemp8 007E           MSSP_I2C_Master_Write@_ack 0005  
         MSSP_I2C_Master_Write@mssp 0002                     __initialization 21AC  
                      __end_of_main 2112            ??_MSSP_I2C_MODE_GPIO_CFG 0002  
                         ??_I2C_ISR 0001                           ??_ADC_ISR 0001  
                            ??_main 00AF                       __activetblptr 0003  
             _TMR3_InterruptHandler 00AD                           ??_RB4_ISR 0001  
                         ??_RB5_ISR 0001                           ??_RB6_ISR 0001  
                         ??_RB7_ISR 0001               _MSSP_I2C_Master_Write 220E  
                   Relay_Init@F3055 0073      MSSP_I2C_Master_Send_Start@mssp 0002  
                            _ADRESH 0FC4                              _EEADRH 0FAA  
                            _ADRESL 0FC3                              _EEDATA 0FA8  
                            _CCPR1H 0FBF                              _CCPR2H 0FBC  
                            _CCPR1L 0FBE                              _CCPR2L 0FBB  
                            _EECON2 0FA7        ??_MSSP_I2C_Master_Send_Start 0003  
                            i2l1001 183E                              i2l1003 1882  
                            i2l1006 18C6                              i2l1302 23FA  
                            i2l1057 23B8                              i2l1066 239E  
                            i2l1234 23F2                              i2l3003 2424  
                            i2l1075 2384                              i2l1092 2416  
                            i2l1084 236A                              i2l1422 240E  
                            i2l1088 241A                              i2l1096 2412  
                            i2l3201 2384                              i2l3051 2420  
                            i2l3211 236A                              i2l1348 23DA  
                            i2l3205 2354                              i2l1437 242A  
                            i2l3207 2356                              i2l3135 23F4  
                            i2l3057 241C                              i2l3163 2418  
                            i2l3171 2410                              i2l3155 23E8  
                            i2l3181 23B8                              i2l3157 23EA  
                            i2l3167 2414                              i2l3175 23A2  
                            i2l3191 239E                              i2l3159 23EE  
                            i2l1559 23E6                              i2l3177 23A4  
                            i2l3185 2388                              i2l6001 23D0  
                            i2l3187 238A                              i2l3195 236E  
                            i2l6011 23DE                              i2l6003 23D2  
                            i2l3197 2370                              i2l6013 23E2  
                            i2l6005 23D6                              i2l6009 23DC  
                            i2l6801 1780                              i2l6721 1522  
                            i2l6713 14E6                              i2l6811 17C4  
                            i2l6803 178E                              i2l6731 1574  
                            i2l6723 1534                              i2l6715 14F4  
                            i2l6821 1808                              i2l6813 17D2  
                            i2l6805 179C                              i2l6741 15C2  
                            i2l6733 1582                              i2l6725 1542  
                            i2l6717 1502                              i2l6831 184C  
                            i2l6823 1816                              i2l6815 17E0  
                            i2l6807 17AC                              i2l6751 1614  
                            i2l6743 15D4                              i2l6735 1594  
                            i2l6727 1554                              i2l6719 1514  
                            i2l6841 1890                              i2l6833 185A  
                            i2l6825 1824                              i2l6817 17F0  
                            i2l6809 17B0                              i2l6761 1662  
                            i2l6753 1622                              i2l6745 15E2  
                            i2l6737 15A2                              i2l6729 1562  
                            i2l6843 189E                              i2l6835 1868  
                            i2l6827 1834                              i2l6819 17F4  
                            i2l6771 16B4                              i2l6763 1674  
                            i2l6755 1634                              i2l6747 15F4  
                            i2l6739 15B4                              i2l6845 18AC  
                            i2l6837 1878                              i2l6829 1838  
                            i2l6781 16F8                              i2l6773 16C2  
                            i2l6765 1682                              i2l6757 1642  
                            i2l6749 1602                              i2l6847 18BC  
                            i2l6839 187C                              i2l6791 173C  
                            i2l6783 1706                              i2l6775 16D0  
                            i2l6767 1694                              i2l6759 1654  
                            i2l5985 242A                              i2l6849 18C0  
                            i2l6793 174A                              i2l6785 1714  
                            i2l6777 16E0                              i2l6769 16A2  
                            i2l6795 1758                              i2l6787 1724  
                            i2l6779 16E4                              i2l5997 240C  
                            i2l6797 1768                              i2l6789 1728  
                            i2l6799 176C                              _SPBRGH 0FB0  
         _MSSP_I2C_Master_Send_Stop 225C                              _SSPADD 0FC8  
                            _SSPBUF 0FC9                    __end_of___xxtofl 1E18  
             __end_of_MSSP_I2C_Init 1F40                           ??___fladd 0031  
                         ??___fldiv 0018                           ??___fltol 003D  
                            clear_0 21F2                              clear_1 21FE  
                            isa$std 0001                           ?_CCP1_ISR 0001  
                      __pdataCOMRAM 0079                           ?_CCP2_ISR 0001  
                      __mediumconst 0000                              tblptrh 0FF7  
                            tblptrl 0FF6                              tblptru 0FF8  
        MSSP_I2C_Master_Write@data_ 0003                        ___xxtofl@arg 000C  
                      ___xxtofl@exp 000B                        ___xxtofl@val 0002  
                        __accesstop 0080             __end_of__initialization 2204  
                         ?_INT0_ISR 0001                           ?_INT1_ISR 0001  
                         ?_INT2_ISR 0001                       ___rparam_used 0001  
                        ___fltol@f1 0039                      __pcstackCOMRAM 0001  
                  _application_init 23FC                        __pidataBANK0 232E  
                         ?_TMR0_ISR 0001           _USART_TX_InterruptHandler 00AB  
                         ?_TMR1_ISR 0001                           ?_TMR2_ISR 0001  
                         ?_TMR3_ISR 0001                _Timer2_Preload_Value 0070  
      __end_of_I2C_Master_Clock_CFG 21AC                          ??_CCP1_ISR 0001  
                        ??_CCP2_ISR 0001              ?_MSSP_I2C_Master_Write 0002  
     MSSP_I2C_Master_Send_Stop@mssp 0002                          __pbssBANK0 00A3  
                     ??_I2C_BUS_ISR 0001               _INT0_InterruptHandler 0064  
                        ??_INT0_ISR 0001                          ??_INT1_ISR 0001  
                        ??_INT2_ISR 0001                    LED_TURN_ON@F3066 0076  
       __end_of_InterruptManagerLow 18CA                          ??_TMR0_ISR 0001  
                        ??_TMR1_ISR 0001                          ??_TMR2_ISR 0001  
                        ??_TMR3_ISR 0001        __end_of_mssp_i2c_send_1_byte 232E  
                           _I2C_ISR 242C                             _ADC_ISR 2424  
                           _RB4_ISR 23A0                             _RB5_ISR 2386  
                           _RB6_ISR 236C                             _RB7_ISR 2352  
                         ?___xxtofl 0002           _RB6_InterruptHandler_HIGH 0056  
__end_of_MSSP_I2C_Master_Send_Start 22F4          _MSSP_I2C_Master_Send_Start 22A8  
            _MSSP_I2C_MODE_GPIO_CFG 2402     CCP_Compare_Mode_Set_Value@F3171 0066  
                        _btn_values 1001            _RB6_InterruptHandler_LOW 0054  
                           _i2c_obj 009E                _ADC_InterruptHandler 006E  
                           __Hparam 0000                             __Lparam 0000  
               __end_of_I2C_BUS_ISR 2430                             ___fladd 1024  
                           ___fldiv 18CA                             ___fltol 1F40  
       __end_of_I2C_Slave_Clock_CFG 23D0                        __psmallconst 1000  
                           __pcinit 21AC                             __ramtop 1000  
                           __ptext0 2046                             __ptext1 22F4  
                           __ptext2 220E                             __ptext3 225C  
                           __ptext4 22A8                             __ptext5 23FC  
                           __ptext6 2428                             __ptext7 1E18  
                           __ptext8 2402                             __ptext9 23BA  
                         _T0CONbits 0FD5                           _T1CONbits 0FCD  
                           _lat_reg 008A             I2C_Slave_Clock_CFG@mssp 0002  
                         _T2CONbits 0FCA                          ??___xxtofl 0006  
                         _T3CONbits 0FB1                      __pintcode_body 14E4  
              end_of_initialization 2204                             int_func 14E4  
              _I2C_Master_Clock_CFG 2112                      RB4_ISR@RB4_SRC 0001  
                         _RCSTAbits 0FAB                             postdec1 0FE5  
                           postdec2 0FDD                             postinc0 0FEE  
                           postinc2 0FDE               _INT1_InterruptHandler 0062  
                         _PORTBbits 0F81                         ___fladd@grs 0038  
                     ___xxtofl@sign 000A                           _TRISCbits 0F94  
                       ___fldiv@grs 0023                         ___fldiv@rem 001C  
          __end_of_application_init 2402                       ?_USART_RX_ISR 0001  
                     ?_USART_TX_ISR 0001                _mssp_i2c_send_1_byte 22F4  
                       _I2C_BUS_ISR 242E                         _CCP1CONbits 0FBD  
             ?_I2C_Master_Clock_CFG 0043                         _CCP2CONbits 0FBA  
                         _TXSTAbits 0FAC                      RB5_ISR@RB5_SRC 0001  
              LED_TURN_TOGGLE@F3076 0074                         _BAUDCONbits 0FB8  
                     __pidataCOMRAM 2408             ??_MSSP_I2C_Master_Write 0006  
              _Timer3_Preload_Value 0048                 start_initialization 21AC  
                    ??_USART_RX_ISR 0001                      ??_USART_TX_ISR 0001  
             ?_mssp_i2c_send_1_byte 0006                   MSSP_I2C_Init@mssp 0046  
                    RB6_ISR@RB6_SRC 0001   CCP1_Capture_Mode_Read_Value@F3162 0068  
         _USART_RX_InterruptHandler 00A9                         __pdataBANK0 0080  
                          ?_I2C_ISR 0001                            ?_ADC_ISR 0001  
                    _ECU_Layer_Init 2428                           ___fladd@a 002D  
                         ___fladd@b 0029                           ___fldiv@a 0014  
                         ___fldiv@b 0010                            ?_RB4_ISR 0001  
                          ?_RB5_ISR 0001                            ?_RB6_ISR 0001  
                          ?_RB7_ISR 0001             ?_MSSP_I2C_MODE_GPIO_CFG 0001  
                       __pbssCOMRAM 0048                       __pcstackBANK0 00AF  
                     LED_init@F3061 0077         ?_MSSP_I2C_Master_Send_Start 0002  
                 LED_TURN_OFF@F3071 0075                       _Preload_Value 004C  
            ??_I2C_Master_Clock_CFG 0044               _INT2_InterruptHandler 0060  
             _TMR0_InterruptHandler 004E                       _MSSP_I2C_Init 1E18  
                    RB7_ISR@RB7_SRC 0001                           __pintcode 0008  
                          ?___fladd 0029                            ?___fldiv 0010  
                          ?___fltol 0039              __end_of_ECU_Layer_Init 242A  
    __end_of_MSSP_I2C_MODE_GPIO_CFG 2408                         __smallconst 1000  
         _RB4_InterruptHandler_HIGH 005E                            _CCP1_ISR 2420  
                          _CCP2_ISR 241C           _RB7_InterruptHandler_HIGH 0052  
            ??_mssp_i2c_send_1_byte 000A            _RB5_InterruptHandler_LOW 0058  
                          _INT0_ISR 2418                            _INT1_ISR 2414  
                          _INT2_ISR 2410                            _RB4_Flag 007C  
                          _RB5_Flag 007B                            _RB6_Flag 007A  
                          _RB7_Flag 0079                            _PIE1bits 0F9D  
                          _PIE2bits 0FA0                      ?_MSSP_I2C_Init 0046  
                          i2u136_40 23B4                            i2u136_41 23B0  
                          i2u137_40 239A                            i2u137_41 2396  
                          i2u138_40 2380                            i2u138_41 237C  
                          i2u139_40 2366                            i2u139_41 2362  
                          i2u601_40 14F4                            i2u601_41 14F0  
                          _PIR1bits 0F9E                            i2u610_40 1582  
                          i2u602_40 1502                            i2u610_41 157E  
                          i2u602_41 14FE                            i2u611_40 1594  
                          i2u603_40 1514                            i2u611_41 1590  
                          i2u603_41 1510                            _PIR2bits 0FA1  
                          i2u620_40 1622                            i2u612_40 15A2  
                          i2u604_40 1522                            i2u620_41 161E  
                          i2u612_41 159E                            i2u604_41 151E  
                          i2u621_40 1634                            i2u613_40 15B4  
                          i2u605_40 1534                            i2u621_41 1630  
                          i2u613_41 15B0                            i2u605_41 1530  
                          i2u630_40 16C2                            i2u622_40 1642  
                          i2u614_40 15C2                            i2u606_40 1542  
                          i2u630_41 16BE                            i2u622_41 163E  
                          i2u614_41 15BE                            i2u606_41 153E  
                          i2u631_40 16D0                            i2u623_40 1654  
                          i2u615_40 15D4                            i2u607_40 1554  
                          i2u631_41 16CC                            i2u623_41 1650  
                          i2u615_41 15D0                            i2u607_41 1550  
                          i2u640_40 1768                            i2u632_40 16E0  
                          i2u624_40 1662                            i2u616_40 15E2  
                          i2u608_40 1562                            i2u640_41 1764  
                          i2u632_41 16DC                            i2u624_41 165E  
                          i2u616_41 15DE                            i2u608_41 155E  
                          i2u641_40 1780                            i2u633_40 16F8  
                          i2u625_40 1674                            i2u617_40 15F4  
                          i2u609_40 1574                            i2u641_41 177C  
                          i2u633_41 16F4                            i2u625_41 1670  
                          i2u617_41 15F0                            i2u609_41 1570  
                          i2u650_40 1816                            i2u642_40 178E  
                          i2u634_40 1706                            i2u626_40 1682  
                          i2u618_40 1602                            i2u650_41 1812  
                          i2u642_41 178A                            i2u634_41 1702  
                          i2u626_41 167E                            i2u618_41 15FE  
                          i2u651_40 1824                            i2u643_40 179C  
                          i2u635_40 1714                            i2u627_40 1694  
                          i2u619_40 1614                            i2u651_41 1820  
                          i2u643_41 1798                            i2u635_41 1710  
                          i2u627_41 1690                            i2u619_41 1610  
                          i2u660_40 18BC                            i2u652_40 1834  
                          i2u644_40 17AC                            i2u636_40 1724  
                          i2u628_40 16A2                            i2u660_41 18B8  
                          i2u652_41 1830                            i2u644_41 17A8  
                          i2u636_41 1720                            i2u628_41 169E  
                          i2u653_40 184C                            i2u645_40 17C4  
                          i2u637_40 173C                            i2u629_40 16B4  
                          i2u653_41 1848                            i2u645_41 17C0  
                          i2u637_41 1738                            i2u629_41 16B0  
                          i2u654_40 185A                            i2u646_40 17D2  
                          i2u638_40 174A                            i2u654_41 1856  
                          i2u646_41 17CE                            i2u638_41 1746  
                          i2u655_40 1868                            i2u647_40 17E0  
                          i2u639_40 1758                            i2u655_41 1864  
                          i2u647_41 17DC                            i2u639_41 1754  
                          i2u656_40 1878                            i2u648_40 17F0  
                          i2u656_41 1874                            i2u648_41 17EC  
                          i2u657_40 1890                            i2u649_40 1808  
                          i2u657_41 188C                            i2u649_41 1804  
                          i2u658_40 189E                            i2u658_41 189A  
                          i2u659_40 18AC                            i2u659_41 18A8  
                          _TMR0_ISR 23E8                            _TMR1_ISR 23DC  
                          _TMR2_ISR 23F4                            _TMR3_ISR 23D0  
              __end_of_USART_RX_ISR 242C                __end_of_USART_TX_ISR 2410  
                   ?_ECU_Layer_Init 0001                          _ADCON0bits 0FC2  
                        _ADCON1bits 0FC1                          _ADCON2bits 0FC0  
          I2C_Master_Clock_CFG@mssp 0043                   ?_application_init 0001  
                       _INTCON2bits 0FF1                         _INTCON3bits 0FF0  
                         copy_data0 21C0                           copy_data1 21E0  
         mssp_i2c_send_1_byte@dataa 0008                  ??_application_init 0002  
                      ?_I2C_BUS_ISR 0001                          _EECON1bits 0FA6  
                  MSSP_I2C_Init@ret 0047                            __Hrparam 0000  
                          __Lrparam 0000               _CCP1_InterruptHandler 006C  
                __end_of_btn_values 1011          ?_MSSP_I2C_Master_Send_Stop 0002  
     __end_of_MSSP_I2C_Master_Write 225C               _TMR1_InterruptHandler 00A3  
                          ___xxtofl 1C64                            __ptext10 2112  
                          __ptext11 1C64                            __ptext20 23DC  
                          __ptext12 1F40                            __ptext21 23E8  
                          __ptext13 18CA                            __ptext30 242E  
                          __ptext22 2352                            __ptext14 1024  
                          __ptext31 241C                            __ptext23 236C  
                          __ptext32 2420                            __ptext24 2386  
                          __ptext16 240C                            __ptext33 2424  
                          __ptext25 23A0                            __ptext17 242A  
                          __ptext26 2410                            __ptext18 23D0  
                          __ptext27 2414                            __ptext19 23F4  
                          __ptext28 2418                            __ptext29 242C  
                   ??_MSSP_I2C_Init 0047                            isa$xinst 0000  
                          int$flags 007D                            _port_reg 0080  
                          _tris_reg 0094   __end_of_MSSP_I2C_Master_Send_Stop 22A8  
                        _INTCONbits 0FF2                            intlevel2 0000  
      _USART_FRROR_InterruptHandler 00A7                 _InterruptManagerLow 0008  
      _USART_ORROR_InterruptHandler 00A5                ?_InterruptManagerLow 0001  
                    Relay_OFF@F3065 0071                         _SSPCON1bits 0FC6  
                       _SSPCON2bits 0FC5                       ___fladd@signs 0035  
             _CCP2_InterruptHandler 006A                        _USART_RX_ISR 242A  
                      _USART_TX_ISR 240C                       Relay_ON@F3060 0072  
                      ___fladd@aexp 0036                        ___fladd@bexp 0037  
             _TMR2_InterruptHandler 004A                 _I2C_Slave_Clock_CFG 23BA  
                  ??_ECU_Layer_Init 0002  
